(dp0
I1
(dp1
I1801
(dp2
S'through balls'
p3
I0
sS'long balls'
p4
I0
sS'key passes'
p5
I0
sS'successful passes'
p6
I0
sS'assists'
p7
I0
sS'unsuccessful passes'
p8
I0
ssI1802
(dp9
g3
I0
sg4
I0
sg5
I0
sg6
I0
sg7
I0
sg8
I0
ssI1803
(dp10
g3
I0
sg4
I0
sg5
I0
sg6
I0
sg7
I0
sg8
I0
ssI1301
(dp11
g3
I0
sg4
I0
sg5
I0
sg6
I0
sg7
I0
sg8
I0
ssI1302
(dp12
g3
I0
sg4
I0
sg5
I0
sg6
I0
sg7
I0
sg8
I0
ssI1303
(dp13
g3
I0
sg4
I0
sg5
I0
sg6
I0
sg7
I0
sg8
I0
ssI801
(dp14
g3
I0
sg4
I0
sg5
I0
sg6
I0
sg7
I0
sg8
I0
ssI802
(dp15
g3
I0
sg4
I0
sg5
I0
sg6
I0
sg7
I0
sg8
I0
ssI803
(dp16
g3
I0
sg4
I0
sg5
I0
sg6
I0
sg7
I0
sg8
I0
ssI301
(dp17
g3
I0
sg4
I0
sg5
I0
sg6
I0
sg7
I0
sg8
I0
ssI302
(dp18
g3
I0
sg4
I0
sg5
I0
sg6
I0
sg7
I0
sg8
I0
ssI303
(dp19
g3
I0
sg4
I0
sg5
I0
sg6
I0
sg7
I0
sg8
I0
ssI1601
(dp20
g3
I0
sg4
I0
sg5
I0
sg6
I0
sg7
I0
sg8
I0
ssI1602
(dp21
g3
I0
sg4
I0
sg5
I0
sg6
I0
sg7
I0
sg8
I0
ssI1603
(dp22
g3
I0
sg4
I0
sg5
I0
sg6
I0
sg7
I0
sg8
I0
ssI1101
(dp23
g3
I0
sg4
I0
sg5
I0
sg6
I0
sg7
I0
sg8
I0
ssI1102
(dp24
g3
I0
sg4
I0
sg5
I0
sg6
I0
sg7
I0
sg8
I0
ssI1103
(dp25
g3
I0
sg4
I0
sg5
I0
sg6
I0
sg7
I0
sg8
I0
ssI601
(dp26
g3
I0
sg4
I0
sg5
I0
sg6
I0
sg7
I0
sg8
I0
ssI602
(dp27
g3
I0
sg4
I0
sg5
I0
sg6
I0
sg7
I0
sg8
I0
ssI603
(dp28
g3
I0
sg4
I0
sg5
I0
sg6
I0
sg7
I0
sg8
I0
ssI101
(dp29
g3
I0
sg4
I0
sg5
I0
sg6
I37
sg7
I0
sg8
I0
ssI102
(dp30
g3
I0
sg4
I0
sg5
I0
sg6
I0
sg7
I0
sg8
I0
ssI103
(dp31
g3
I0
sg4
I0
sg5
I0
sg6
I0
sg7
I0
sg8
I0
ssI1901
(dp32
g3
I0
sg4
I0
sg5
I0
sg6
I0
sg7
I0
sg8
I0
ssI1902
(dp33
g3
I0
sg4
I0
sg5
I0
sg6
I0
sg7
I0
sg8
I0
ssI1903
(dp34
g3
I0
sg4
I0
sg5
I0
sg6
I0
sg7
I0
sg8
I0
ssI1401
(dp35
g3
I0
sg4
I0
sg5
I0
sg6
I0
sg7
I0
sg8
I0
ssI1402
(dp36
g3
I0
sg4
I0
sg5
I0
sg6
I0
sg7
I0
sg8
I0
ssI1403
(dp37
g3
I0
sg4
I0
sg5
I0
sg6
I0
sg7
I0
sg8
I0
ssI901
(dp38
g3
I0
sg4
I0
sg5
I0
sg6
I0
sg7
I0
sg8
I0
ssI902
(dp39
g3
I0
sg4
I0
sg5
I0
sg6
I0
sg7
I0
sg8
I0
ssI903
(dp40
g3
I0
sg4
I0
sg5
I0
sg6
I0
sg7
I0
sg8
I0
ssI401
(dp41
g3
I0
sg4
I0
sg5
I0
sg6
I0
sg7
I0
sg8
I0
ssI402
(dp42
g3
I0
sg4
I0
sg5
I0
sg6
I0
sg7
I0
sg8
I0
ssI403
(dp43
g3
I0
sg4
I0
sg5
I0
sg6
I0
sg7
I0
sg8
I0
ssI1701
(dp44
g3
I0
sg4
I0
sg5
I0
sg6
I0
sg7
I0
sg8
I0
ssI1702
(dp45
g3
I0
sg4
I0
sg5
I0
sg6
I0
sg7
I0
sg8
I0
ssI1703
(dp46
g3
I0
sg4
I0
sg5
I0
sg6
I0
sg7
I0
sg8
I0
ssI1201
(dp47
g3
I0
sg4
I0
sg5
I0
sg6
I0
sg7
I0
sg8
I0
ssI1202
(dp48
g3
I0
sg4
I0
sg5
I0
sg6
I0
sg7
I0
sg8
I0
ssI1203
(dp49
g3
I0
sg4
I0
sg5
I0
sg6
I0
sg7
I0
sg8
I0
ssI701
(dp50
g3
I0
sg4
I0
sg5
I0
sg6
I0
sg7
I0
sg8
I0
ssI702
(dp51
g3
I0
sg4
I0
sg5
I0
sg6
I0
sg7
I0
sg8
I0
ssI703
(dp52
g3
I0
sg4
I0
sg5
I0
sg6
I0
sg7
I0
sg8
I0
ssI201
(dp53
g3
I0
sg4
I0
sg5
I0
sg6
I0
sg7
I0
sg8
I0
ssI202
(dp54
g3
I0
sg4
I0
sg5
I0
sg6
I0
sg7
I0
sg8
I0
ssI203
(dp55
g3
I0
sg4
I0
sg5
I0
sg6
I0
sg7
I0
sg8
I0
ssI2001
(dp56
g3
I0
sg4
I0
sg5
I0
sg6
I0
sg7
I0
sg8
I0
ssI2002
(dp57
g3
I0
sg4
I0
sg5
I0
sg6
I0
sg7
I0
sg8
I0
ssI2003
(dp58
g3
I0
sg4
I0
sg5
I0
sg6
I0
sg7
I0
sg8
I0
ssI1501
(dp59
g3
I0
sg4
I0
sg5
I0
sg6
I0
sg7
I0
sg8
I0
ssI1502
(dp60
g3
I0
sg4
I0
sg5
I0
sg6
I0
sg7
I0
sg8
I0
ssI1503
(dp61
g3
I0
sg4
I0
sg5
I0
sg6
I0
sg7
I0
sg8
I0
ssI1001
(dp62
g3
I0
sg4
I0
sg5
I0
sg6
I0
sg7
I0
sg8
I0
ssI1002
(dp63
g3
I0
sg4
I0
sg5
I0
sg6
I0
sg7
I0
sg8
I0
ssI1003
(dp64
g3
I0
sg4
I0
sg5
I0
sg6
I0
sg7
I0
sg8
I0
ssI501
(dp65
g3
I0
sg4
I0
sg5
I0
sg6
I0
sg7
I0
sg8
I0
ssI502
(dp66
g3
I0
sg4
I0
sg5
I0
sg6
I0
sg7
I0
sg8
I0
ssI503
(dp67
g3
I0
sg4
I0
sg5
I0
sg6
I0
sg7
I0
sg8
I0
sssI2
(dp68
I1801
(dp69
g3
I0
sg4
I0
sg5
I0
sg6
I0
sg7
I0
sg8
I0
ssI1802
(dp70
g3
I0
sg4
I0
sg5
I0
sg6
I0
sg7
I0
sg8
I0
ssI1803
(dp71
g3
I0
sg4
I0
sg5
I0
sg6
I0
sg7
I0
sg8
I0
ssI1301
(dp72
g3
I0
sg4
I0
sg5
I0
sg6
I0
sg7
I0
sg8
I0
ssI1302
(dp73
g3
I0
sg4
I0
sg5
I0
sg6
I0
sg7
I0
sg8
I0
ssI1303
(dp74
g3
I0
sg4
I0
sg5
I0
sg6
I0
sg7
I0
sg8
I0
ssI801
(dp75
g3
I0
sg4
I0
sg5
I0
sg6
I0
sg7
I0
sg8
I0
ssI802
(dp76
g3
I0
sg4
I0
sg5
I0
sg6
I0
sg7
I0
sg8
I0
ssI803
(dp77
g3
I0
sg4
I0
sg5
I0
sg6
I0
sg7
I0
sg8
I0
ssI301
(dp78
g3
I0
sg4
I0
sg5
I0
sg6
I0
sg7
I0
sg8
I0
ssI302
(dp79
g3
I0
sg4
I0
sg5
I0
sg6
I0
sg7
I0
sg8
I0
ssI303
(dp80
g3
I0
sg4
I0
sg5
I0
sg6
I0
sg7
I0
sg8
I0
ssI1601
(dp81
g3
I0
sg4
I0
sg5
I0
sg6
I0
sg7
I0
sg8
I0
ssI1602
(dp82
g3
I0
sg4
I0
sg5
I0
sg6
I0
sg7
I0
sg8
I0
ssI1603
(dp83
g3
I0
sg4
I0
sg5
I0
sg6
I0
sg7
I0
sg8
I0
ssI1101
(dp84
g3
I0
sg4
I0
sg5
I0
sg6
I0
sg7
I0
sg8
I0
ssI1102
(dp85
g3
I0
sg4
I0
sg5
I0
sg6
I0
sg7
I0
sg8
I0
ssI1103
(dp86
g3
I0
sg4
I0
sg5
I0
sg6
I0
sg7
I0
sg8
I0
ssI601
(dp87
g3
I0
sg4
I0
sg5
I0
sg6
I0
sg7
I0
sg8
I0
ssI602
(dp88
g3
I0
sg4
I0
sg5
I0
sg6
I0
sg7
I0
sg8
I0
ssI603
(dp89
g3
I0
sg4
I0
sg5
I0
sg6
I0
sg7
I0
sg8
I0
ssI101
(dp90
g3
I0
sg4
I0
sg5
I0
sg6
I0
sg7
I0
sg8
I0
ssI102
(dp91
g3
I0
sg4
I0
sg5
I0
sg6
I0
sg7
I0
sg8
I0
ssI103
(dp92
g3
I0
sg4
I0
sg5
I0
sg6
I0
sg7
I0
sg8
I0
ssI1901
(dp93
g3
I0
sg4
I0
sg5
I0
sg6
I0
sg7
I0
sg8
I0
ssI1902
(dp94
g3
I0
sg4
I0
sg5
I0
sg6
I0
sg7
I0
sg8
I0
ssI1903
(dp95
g3
I0
sg4
I0
sg5
I0
sg6
I0
sg7
I0
sg8
I0
ssI1401
(dp96
g3
I0
sg4
I0
sg5
I0
sg6
I0
sg7
I0
sg8
I0
ssI1402
(dp97
g3
I0
sg4
I0
sg5
I0
sg6
I0
sg7
I0
sg8
I0
ssI1403
(dp98
g3
I0
sg4
I0
sg5
I0
sg6
I0
sg7
I0
sg8
I0
ssI901
(dp99
g3
I0
sg4
I0
sg5
I0
sg6
I0
sg7
I0
sg8
I0
ssI902
(dp100
g3
I0
sg4
I0
sg5
I0
sg6
I0
sg7
I0
sg8
I0
ssI903
(dp101
g3
I0
sg4
I0
sg5
I0
sg6
I0
sg7
I0
sg8
I0
ssI401
(dp102
g3
I0
sg4
I0
sg5
I0
sg6
I0
sg7
I0
sg8
I0
ssI402
(dp103
g3
I0
sg4
I0
sg5
I0
sg6
I0
sg7
I0
sg8
I0
ssI403
(dp104
g3
I0
sg4
I0
sg5
I0
sg6
I0
sg7
I0
sg8
I0
ssI1701
(dp105
g3
I0
sg4
I0
sg5
I0
sg6
I0
sg7
I0
sg8
I0
ssI1702
(dp106
g3
I0
sg4
I0
sg5
I0
sg6
I0
sg7
I0
sg8
I0
ssI1703
(dp107
g3
I0
sg4
I0
sg5
I0
sg6
I0
sg7
I0
sg8
I0
ssI1201
(dp108
g3
I0
sg4
I0
sg5
I0
sg6
I0
sg7
I0
sg8
I0
ssI1202
(dp109
g3
I0
sg4
I0
sg5
I0
sg6
I0
sg7
I0
sg8
I0
ssI1203
(dp110
g3
I0
sg4
I0
sg5
I0
sg6
I0
sg7
I0
sg8
I0
ssI701
(dp111
g3
I0
sg4
I0
sg5
I0
sg6
I0
sg7
I0
sg8
I0
ssI702
(dp112
g3
I0
sg4
I0
sg5
I0
sg6
I0
sg7
I0
sg8
I0
ssI703
(dp113
g3
I0
sg4
I0
sg5
I0
sg6
I0
sg7
I0
sg8
I0
ssI201
(dp114
g3
I0
sg4
I0
sg5
I0
sg6
I0
sg7
I0
sg8
I0
ssI202
(dp115
g3
I0
sg4
I0
sg5
I0
sg6
I0
sg7
I0
sg8
I0
ssI203
(dp116
g3
I0
sg4
I0
sg5
I0
sg6
I0
sg7
I0
sg8
I0
ssI2001
(dp117
g3
I0
sg4
I0
sg5
I0
sg6
I0
sg7
I0
sg8
I0
ssI2002
(dp118
g3
I0
sg4
I0
sg5
I0
sg6
I0
sg7
I0
sg8
I0
ssI2003
(dp119
g3
I0
sg4
I0
sg5
I0
sg6
I0
sg7
I0
sg8
I0
ssI1501
(dp120
g3
I0
sg4
I0
sg5
I0
sg6
I0
sg7
I0
sg8
I0
ssI1502
(dp121
g3
I0
sg4
I0
sg5
I0
sg6
I0
sg7
I0
sg8
I0
ssI1503
(dp122
g3
I0
sg4
I0
sg5
I0
sg6
I0
sg7
I0
sg8
I0
ssI1001
(dp123
g3
I0
sg4
I0
sg5
I0
sg6
I0
sg7
I0
sg8
I0
ssI1002
(dp124
g3
I0
sg4
I0
sg5
I0
sg6
I0
sg7
I0
sg8
I0
ssI1003
(dp125
g3
I0
sg4
I0
sg5
I0
sg6
I0
sg7
I0
sg8
I0
ssI501
(dp126
g3
I0
sg4
I0
sg5
I0
sg6
I0
sg7
I0
sg8
I0
ssI502
(dp127
g3
I0
sg4
I0
sg5
I0
sg6
I0
sg7
I0
sg8
I0
ssI503
(dp128
g3
I0
sg4
I0
sg5
I0
sg6
I0
sg7
I0
sg8
I0
sssI3
(dp129
I1801
(dp130
g3
I0
sg4
I0
sg5
I0
sg6
I0
sg7
I0
sg8
I0
ssI1802
(dp131
g3
I0
sg4
I0
sg5
I0
sg6
I0
sg7
I0
sg8
I0
ssI1803
(dp132
g3
I0
sg4
I0
sg5
I0
sg6
I0
sg7
I0
sg8
I0
ssI1301
(dp133
g3
I0
sg4
I0
sg5
I0
sg6
I0
sg7
I0
sg8
I0
ssI1302
(dp134
g3
I0
sg4
I0
sg5
I0
sg6
I0
sg7
I0
sg8
I0
ssI1303
(dp135
g3
I0
sg4
I0
sg5
I0
sg6
I0
sg7
I0
sg8
I0
ssI801
(dp136
g3
I0
sg4
I0
sg5
I0
sg6
I0
sg7
I0
sg8
I0
ssI802
(dp137
g3
I0
sg4
I0
sg5
I0
sg6
I0
sg7
I0
sg8
I0
ssI803
(dp138
g3
I0
sg4
I0
sg5
I0
sg6
I0
sg7
I0
sg8
I0
ssI301
(dp139
g3
I0
sg4
I0
sg5
I0
sg6
I0
sg7
I0
sg8
I0
ssI302
(dp140
g3
I0
sg4
I0
sg5
I0
sg6
I0
sg7
I0
sg8
I0
ssI303
(dp141
g3
I0
sg4
I0
sg5
I0
sg6
I0
sg7
I0
sg8
I0
ssI1601
(dp142
g3
I0
sg4
I0
sg5
I0
sg6
I0
sg7
I0
sg8
I0
ssI1602
(dp143
g3
I0
sg4
I0
sg5
I0
sg6
I0
sg7
I0
sg8
I0
ssI1603
(dp144
g3
I0
sg4
I0
sg5
I0
sg6
I0
sg7
I0
sg8
I0
ssI1101
(dp145
g3
I0
sg4
I0
sg5
I0
sg6
I0
sg7
I0
sg8
I0
ssI1102
(dp146
g3
I0
sg4
I0
sg5
I0
sg6
I0
sg7
I0
sg8
I0
ssI1103
(dp147
g3
I0
sg4
I0
sg5
I0
sg6
I0
sg7
I0
sg8
I0
ssI601
(dp148
g3
I0
sg4
I0
sg5
I0
sg6
I0
sg7
I0
sg8
I0
ssI602
(dp149
g3
I0
sg4
I0
sg5
I0
sg6
I0
sg7
I0
sg8
I0
ssI603
(dp150
g3
I0
sg4
I0
sg5
I0
sg6
I0
sg7
I0
sg8
I0
ssI101
(dp151
g3
I0
sg4
I0
sg5
I0
sg6
I0
sg7
I0
sg8
I0
ssI102
(dp152
g3
I0
sg4
I0
sg5
I0
sg6
I0
sg7
I0
sg8
I0
ssI103
(dp153
g3
I0
sg4
I0
sg5
I0
sg6
I0
sg7
I0
sg8
I0
ssI1901
(dp154
g3
I0
sg4
I0
sg5
I0
sg6
I0
sg7
I0
sg8
I0
ssI1902
(dp155
g3
I0
sg4
I0
sg5
I0
sg6
I0
sg7
I0
sg8
I0
ssI1903
(dp156
g3
I0
sg4
I0
sg5
I0
sg6
I0
sg7
I0
sg8
I0
ssI1401
(dp157
g3
I0
sg4
I0
sg5
I0
sg6
I0
sg7
I0
sg8
I0
ssI1402
(dp158
g3
I0
sg4
I0
sg5
I0
sg6
I0
sg7
I0
sg8
I0
ssI1403
(dp159
g3
I0
sg4
I0
sg5
I0
sg6
I0
sg7
I0
sg8
I0
ssI901
(dp160
g3
I0
sg4
I0
sg5
I0
sg6
I0
sg7
I0
sg8
I0
ssI902
(dp161
g3
I0
sg4
I0
sg5
I0
sg6
I0
sg7
I0
sg8
I0
ssI903
(dp162
g3
I0
sg4
I0
sg5
I0
sg6
I0
sg7
I0
sg8
I0
ssI401
(dp163
g3
I0
sg4
I0
sg5
I0
sg6
I0
sg7
I0
sg8
I0
ssI402
(dp164
g3
I0
sg4
I0
sg5
I0
sg6
I0
sg7
I0
sg8
I0
ssI403
(dp165
g3
I0
sg4
I0
sg5
I0
sg6
I0
sg7
I0
sg8
I0
ssI1701
(dp166
g3
I0
sg4
I0
sg5
I0
sg6
I0
sg7
I0
sg8
I0
ssI1702
(dp167
g3
I0
sg4
I0
sg5
I0
sg6
I0
sg7
I0
sg8
I0
ssI1703
(dp168
g3
I0
sg4
I0
sg5
I0
sg6
I0
sg7
I0
sg8
I0
ssI1201
(dp169
g3
I0
sg4
I0
sg5
I0
sg6
I0
sg7
I0
sg8
I0
ssI1202
(dp170
g3
I0
sg4
I0
sg5
I0
sg6
I0
sg7
I0
sg8
I0
ssI1203
(dp171
g3
I0
sg4
I0
sg5
I0
sg6
I0
sg7
I0
sg8
I0
ssI701
(dp172
g3
I0
sg4
I0
sg5
I0
sg6
I0
sg7
I0
sg8
I0
ssI702
(dp173
g3
I0
sg4
I0
sg5
I0
sg6
I0
sg7
I0
sg8
I0
ssI703
(dp174
g3
I0
sg4
I0
sg5
I0
sg6
I0
sg7
I0
sg8
I0
ssI201
(dp175
g3
I0
sg4
I0
sg5
I0
sg6
I0
sg7
I0
sg8
I0
ssI202
(dp176
g3
I0
sg4
I0
sg5
I0
sg6
I0
sg7
I0
sg8
I0
ssI203
(dp177
g3
I0
sg4
I0
sg5
I0
sg6
I0
sg7
I0
sg8
I0
ssI2001
(dp178
g3
I0
sg4
I0
sg5
I0
sg6
I0
sg7
I0
sg8
I0
ssI2002
(dp179
g3
I0
sg4
I0
sg5
I0
sg6
I0
sg7
I0
sg8
I0
ssI2003
(dp180
g3
I0
sg4
I0
sg5
I0
sg6
I0
sg7
I0
sg8
I0
ssI1501
(dp181
g3
I0
sg4
I0
sg5
I0
sg6
I0
sg7
I0
sg8
I0
ssI1502
(dp182
g3
I0
sg4
I0
sg5
I0
sg6
I0
sg7
I0
sg8
I0
ssI1503
(dp183
g3
I0
sg4
I0
sg5
I0
sg6
I0
sg7
I0
sg8
I0
ssI1001
(dp184
g3
I0
sg4
I0
sg5
I0
sg6
I0
sg7
I0
sg8
I0
ssI1002
(dp185
g3
I0
sg4
I0
sg5
I0
sg6
I0
sg7
I0
sg8
I0
ssI1003
(dp186
g3
I0
sg4
I0
sg5
I0
sg6
I0
sg7
I0
sg8
I0
ssI501
(dp187
g3
I0
sg4
I0
sg5
I0
sg6
I0
sg7
I0
sg8
I0
ssI502
(dp188
g3
I0
sg4
I0
sg5
I0
sg6
I0
sg7
I0
sg8
I0
ssI503
(dp189
g3
I0
sg4
I0
sg5
I0
sg6
I0
sg7
I0
sg8
I0
sssI4
(dp190
I1801
(dp191
g3
I0
sg4
I0
sg5
I0
sg6
I0
sg7
I0
sg8
I0
ssI1802
(dp192
g3
I0
sg4
I0
sg5
I0
sg6
I0
sg7
I0
sg8
I0
ssI1803
(dp193
g3
I0
sg4
I0
sg5
I0
sg6
I0
sg7
I0
sg8
I0
ssI1301
(dp194
g3
I0
sg4
I0
sg5
I0
sg6
I0
sg7
I0
sg8
I0
ssI1302
(dp195
g3
I0
sg4
I0
sg5
I0
sg6
I0
sg7
I0
sg8
I0
ssI1303
(dp196
g3
I0
sg4
I0
sg5
I0
sg6
I0
sg7
I0
sg8
I0
ssI801
(dp197
g3
I0
sg4
I0
sg5
I0
sg6
I0
sg7
I0
sg8
I0
ssI802
(dp198
g3
I0
sg4
I0
sg5
I0
sg6
I0
sg7
I0
sg8
I0
ssI803
(dp199
g3
I0
sg4
I0
sg5
I0
sg6
I0
sg7
I0
sg8
I0
ssI301
(dp200
g3
I0
sg4
I0
sg5
I0
sg6
I0
sg7
I0
sg8
I0
ssI302
(dp201
g3
I0
sg4
I0
sg5
I0
sg6
I0
sg7
I0
sg8
I0
ssI303
(dp202
g3
I0
sg4
I0
sg5
I0
sg6
I0
sg7
I0
sg8
I0
ssI1601
(dp203
g3
I0
sg4
I0
sg5
I0
sg6
I0
sg7
I0
sg8
I0
ssI1602
(dp204
g3
I0
sg4
I0
sg5
I0
sg6
I0
sg7
I0
sg8
I0
ssI1603
(dp205
g3
I0
sg4
I0
sg5
I0
sg6
I0
sg7
I0
sg8
I0
ssI1101
(dp206
g3
I0
sg4
I0
sg5
I0
sg6
I0
sg7
I0
sg8
I0
ssI1102
(dp207
g3
I0
sg4
I0
sg5
I0
sg6
I0
sg7
I0
sg8
I0
ssI1103
(dp208
g3
I0
sg4
I0
sg5
I0
sg6
I0
sg7
I0
sg8
I0
ssI601
(dp209
g3
I0
sg4
I0
sg5
I0
sg6
I0
sg7
I0
sg8
I0
ssI602
(dp210
g3
I0
sg4
I0
sg5
I0
sg6
I0
sg7
I0
sg8
I0
ssI603
(dp211
g3
I0
sg4
I0
sg5
I0
sg6
I0
sg7
I0
sg8
I0
ssI101
(dp212
g3
I0
sg4
I0
sg5
I0
sg6
I0
sg7
I0
sg8
I0
ssI102
(dp213
g3
I0
sg4
I0
sg5
I0
sg6
I0
sg7
I0
sg8
I0
ssI103
(dp214
g3
I0
sg4
I0
sg5
I0
sg6
I0
sg7
I0
sg8
I0
ssI1901
(dp215
g3
I0
sg4
I0
sg5
I0
sg6
I0
sg7
I0
sg8
I0
ssI1902
(dp216
g3
I0
sg4
I0
sg5
I0
sg6
I0
sg7
I0
sg8
I0
ssI1903
(dp217
g3
I0
sg4
I0
sg5
I0
sg6
I0
sg7
I0
sg8
I0
ssI1401
(dp218
g3
I0
sg4
I0
sg5
I0
sg6
I0
sg7
I0
sg8
I0
ssI1402
(dp219
g3
I0
sg4
I0
sg5
I0
sg6
I0
sg7
I0
sg8
I0
ssI1403
(dp220
g3
I0
sg4
I0
sg5
I0
sg6
I0
sg7
I0
sg8
I0
ssI901
(dp221
g3
I0
sg4
I0
sg5
I0
sg6
I0
sg7
I0
sg8
I0
ssI902
(dp222
g3
I0
sg4
I0
sg5
I0
sg6
I0
sg7
I0
sg8
I0
ssI903
(dp223
g3
I0
sg4
I0
sg5
I0
sg6
I0
sg7
I0
sg8
I0
ssI401
(dp224
g3
I0
sg4
I0
sg5
I0
sg6
I0
sg7
I0
sg8
I0
ssI402
(dp225
g3
I0
sg4
I0
sg5
I0
sg6
I0
sg7
I0
sg8
I0
ssI403
(dp226
g3
I0
sg4
I0
sg5
I0
sg6
I0
sg7
I0
sg8
I0
ssI1701
(dp227
g3
I0
sg4
I0
sg5
I0
sg6
I0
sg7
I0
sg8
I0
ssI1702
(dp228
g3
I0
sg4
I0
sg5
I0
sg6
I0
sg7
I0
sg8
I0
ssI1703
(dp229
g3
I0
sg4
I0
sg5
I0
sg6
I0
sg7
I0
sg8
I0
ssI1201
(dp230
g3
I0
sg4
I0
sg5
I0
sg6
I0
sg7
I0
sg8
I0
ssI1202
(dp231
g3
I0
sg4
I0
sg5
I0
sg6
I0
sg7
I0
sg8
I0
ssI1203
(dp232
g3
I0
sg4
I0
sg5
I0
sg6
I0
sg7
I0
sg8
I0
ssI701
(dp233
g3
I0
sg4
I0
sg5
I0
sg6
I0
sg7
I0
sg8
I0
ssI702
(dp234
g3
I0
sg4
I0
sg5
I0
sg6
I0
sg7
I0
sg8
I0
ssI703
(dp235
g3
I0
sg4
I0
sg5
I0
sg6
I0
sg7
I0
sg8
I0
ssI201
(dp236
g3
I0
sg4
I0
sg5
I0
sg6
I0
sg7
I0
sg8
I0
ssI202
(dp237
g3
I0
sg4
I0
sg5
I0
sg6
I0
sg7
I0
sg8
I0
ssI203
(dp238
g3
I0
sg4
I0
sg5
I0
sg6
I0
sg7
I0
sg8
I0
ssI2001
(dp239
g3
I0
sg4
I0
sg5
I0
sg6
I0
sg7
I0
sg8
I0
ssI2002
(dp240
g3
I0
sg4
I0
sg5
I0
sg6
I0
sg7
I0
sg8
I0
ssI2003
(dp241
g3
I0
sg4
I0
sg5
I0
sg6
I0
sg7
I0
sg8
I0
ssI1501
(dp242
g3
I0
sg4
I0
sg5
I0
sg6
I0
sg7
I0
sg8
I0
ssI1502
(dp243
g3
I0
sg4
I0
sg5
I0
sg6
I0
sg7
I0
sg8
I0
ssI1503
(dp244
g3
I0
sg4
I0
sg5
I0
sg6
I0
sg7
I0
sg8
I0
ssI1001
(dp245
g3
I0
sg4
I0
sg5
I0
sg6
I0
sg7
I0
sg8
I0
ssI1002
(dp246
g3
I0
sg4
I0
sg5
I0
sg6
I0
sg7
I0
sg8
I0
ssI1003
(dp247
g3
I0
sg4
I0
sg5
I0
sg6
I0
sg7
I0
sg8
I0
ssI501
(dp248
g3
I0
sg4
I0
sg5
I0
sg6
I0
sg7
I0
sg8
I0
ssI502
(dp249
g3
I0
sg4
I0
sg5
I0
sg6
I0
sg7
I0
sg8
I0
ssI503
(dp250
g3
I0
sg4
I0
sg5
I0
sg6
I0
sg7
I0
sg8
I0
sssI5
(dp251
I1801
(dp252
g3
I0
sg4
I0
sg5
I0
sg6
I0
sg7
I0
sg8
I0
ssI1802
(dp253
g3
I0
sg4
I0
sg5
I0
sg6
I0
sg7
I0
sg8
I0
ssI1803
(dp254
g3
I0
sg4
I0
sg5
I0
sg6
I0
sg7
I0
sg8
I0
ssI1301
(dp255
g3
I0
sg4
I0
sg5
I0
sg6
I0
sg7
I0
sg8
I0
ssI1302
(dp256
g3
I0
sg4
I0
sg5
I0
sg6
I0
sg7
I0
sg8
I0
ssI1303
(dp257
g3
I0
sg4
I0
sg5
I0
sg6
I0
sg7
I0
sg8
I0
ssI801
(dp258
g3
I0
sg4
I0
sg5
I0
sg6
I0
sg7
I0
sg8
I0
ssI802
(dp259
g3
I0
sg4
I0
sg5
I0
sg6
I0
sg7
I0
sg8
I0
ssI803
(dp260
g3
I0
sg4
I0
sg5
I0
sg6
I0
sg7
I0
sg8
I0
ssI301
(dp261
g3
I0
sg4
I0
sg5
I0
sg6
I0
sg7
I0
sg8
I0
ssI302
(dp262
g3
I0
sg4
I0
sg5
I0
sg6
I0
sg7
I0
sg8
I0
ssI303
(dp263
g3
I0
sg4
I0
sg5
I0
sg6
I0
sg7
I0
sg8
I0
ssI1601
(dp264
g3
I0
sg4
I0
sg5
I0
sg6
I0
sg7
I0
sg8
I0
ssI1602
(dp265
g3
I0
sg4
I0
sg5
I0
sg6
I0
sg7
I0
sg8
I0
ssI1603
(dp266
g3
I0
sg4
I0
sg5
I0
sg6
I0
sg7
I0
sg8
I0
ssI1101
(dp267
g3
I0
sg4
I0
sg5
I0
sg6
I0
sg7
I0
sg8
I0
ssI1102
(dp268
g3
I0
sg4
I0
sg5
I0
sg6
I0
sg7
I0
sg8
I0
ssI1103
(dp269
g3
I0
sg4
I0
sg5
I0
sg6
I0
sg7
I0
sg8
I0
ssI601
(dp270
g3
I0
sg4
I0
sg5
I0
sg6
I0
sg7
I0
sg8
I0
ssI602
(dp271
g3
I0
sg4
I0
sg5
I0
sg6
I0
sg7
I0
sg8
I0
ssI603
(dp272
g3
I0
sg4
I0
sg5
I0
sg6
I0
sg7
I0
sg8
I0
ssI101
(dp273
g3
I0
sg4
I0
sg5
I0
sg6
I0
sg7
I0
sg8
I0
ssI102
(dp274
g3
I0
sg4
I0
sg5
I0
sg6
I0
sg7
I0
sg8
I0
ssI103
(dp275
g3
I0
sg4
I0
sg5
I0
sg6
I0
sg7
I0
sg8
I0
ssI1901
(dp276
g3
I0
sg4
I0
sg5
I0
sg6
I0
sg7
I0
sg8
I0
ssI1902
(dp277
g3
I0
sg4
I0
sg5
I0
sg6
I0
sg7
I0
sg8
I0
ssI1903
(dp278
g3
I0
sg4
I0
sg5
I0
sg6
I0
sg7
I0
sg8
I0
ssI1401
(dp279
g3
I0
sg4
I0
sg5
I0
sg6
I0
sg7
I0
sg8
I0
ssI1402
(dp280
g3
I0
sg4
I0
sg5
I0
sg6
I0
sg7
I0
sg8
I0
ssI1403
(dp281
g3
I0
sg4
I0
sg5
I0
sg6
I0
sg7
I0
sg8
I0
ssI901
(dp282
g3
I0
sg4
I0
sg5
I0
sg6
I0
sg7
I0
sg8
I0
ssI902
(dp283
g3
I0
sg4
I0
sg5
I0
sg6
I0
sg7
I0
sg8
I0
ssI903
(dp284
g3
I0
sg4
I0
sg5
I0
sg6
I0
sg7
I0
sg8
I0
ssI401
(dp285
g3
I0
sg4
I0
sg5
I0
sg6
I0
sg7
I0
sg8
I0
ssI402
(dp286
g3
I0
sg4
I0
sg5
I0
sg6
I0
sg7
I0
sg8
I0
ssI403
(dp287
g3
I0
sg4
I0
sg5
I0
sg6
I0
sg7
I0
sg8
I0
ssI1701
(dp288
g3
I0
sg4
I0
sg5
I0
sg6
I0
sg7
I0
sg8
I0
ssI1702
(dp289
g3
I0
sg4
I0
sg5
I0
sg6
I0
sg7
I0
sg8
I0
ssI1703
(dp290
g3
I0
sg4
I0
sg5
I0
sg6
I0
sg7
I0
sg8
I0
ssI1201
(dp291
g3
I0
sg4
I0
sg5
I0
sg6
I0
sg7
I0
sg8
I0
ssI1202
(dp292
g3
I0
sg4
I0
sg5
I0
sg6
I0
sg7
I0
sg8
I0
ssI1203
(dp293
g3
I0
sg4
I0
sg5
I0
sg6
I0
sg7
I0
sg8
I0
ssI701
(dp294
g3
I0
sg4
I0
sg5
I0
sg6
I0
sg7
I0
sg8
I0
ssI702
(dp295
g3
I0
sg4
I0
sg5
I0
sg6
I0
sg7
I0
sg8
I0
ssI703
(dp296
g3
I0
sg4
I0
sg5
I0
sg6
I0
sg7
I0
sg8
I0
ssI201
(dp297
g3
I0
sg4
I0
sg5
I0
sg6
I0
sg7
I0
sg8
I0
ssI202
(dp298
g3
I0
sg4
I0
sg5
I0
sg6
I0
sg7
I0
sg8
I0
ssI203
(dp299
g3
I0
sg4
I0
sg5
I0
sg6
I0
sg7
I0
sg8
I0
ssI2001
(dp300
g3
I0
sg4
I0
sg5
I0
sg6
I0
sg7
I0
sg8
I0
ssI2002
(dp301
g3
I0
sg4
I0
sg5
I0
sg6
I0
sg7
I0
sg8
I0
ssI2003
(dp302
g3
I0
sg4
I0
sg5
I0
sg6
I0
sg7
I0
sg8
I0
ssI1501
(dp303
g3
I0
sg4
I0
sg5
I0
sg6
I0
sg7
I0
sg8
I0
ssI1502
(dp304
g3
I0
sg4
I0
sg5
I0
sg6
I0
sg7
I0
sg8
I0
ssI1503
(dp305
g3
I0
sg4
I0
sg5
I0
sg6
I0
sg7
I0
sg8
I0
ssI1001
(dp306
g3
I0
sg4
I0
sg5
I0
sg6
I0
sg7
I0
sg8
I0
ssI1002
(dp307
g3
I0
sg4
I0
sg5
I0
sg6
I0
sg7
I0
sg8
I0
ssI1003
(dp308
g3
I0
sg4
I0
sg5
I0
sg6
I0
sg7
I0
sg8
I0
ssI501
(dp309
g3
I0
sg4
I0
sg5
I0
sg6
I0
sg7
I0
sg8
I0
ssI502
(dp310
g3
I0
sg4
I0
sg5
I0
sg6
I0
sg7
I0
sg8
I0
ssI503
(dp311
g3
I0
sg4
I0
sg5
I0
sg6
I0
sg7
I0
sg8
I0
sssI6
(dp312
I1801
(dp313
g3
I0
sg4
I0
sg5
I0
sg6
I0
sg7
I0
sg8
I0
ssI1802
(dp314
g3
I0
sg4
I0
sg5
I0
sg6
I0
sg7
I0
sg8
I0
ssI1803
(dp315
g3
I0
sg4
I0
sg5
I0
sg6
I0
sg7
I0
sg8
I0
ssI1301
(dp316
g3
I0
sg4
I0
sg5
I0
sg6
I0
sg7
I0
sg8
I0
ssI1302
(dp317
g3
I0
sg4
I0
sg5
I0
sg6
I0
sg7
I0
sg8
I0
ssI1303
(dp318
g3
I0
sg4
I0
sg5
I0
sg6
I0
sg7
I0
sg8
I0
ssI801
(dp319
g3
I0
sg4
I0
sg5
I0
sg6
I0
sg7
I0
sg8
I0
ssI802
(dp320
g3
I0
sg4
I0
sg5
I0
sg6
I0
sg7
I0
sg8
I0
ssI803
(dp321
g3
I0
sg4
I0
sg5
I0
sg6
I0
sg7
I0
sg8
I0
ssI301
(dp322
g3
I0
sg4
I0
sg5
I0
sg6
I0
sg7
I0
sg8
I0
ssI302
(dp323
g3
I0
sg4
I0
sg5
I0
sg6
I0
sg7
I0
sg8
I0
ssI303
(dp324
g3
I0
sg4
I0
sg5
I0
sg6
I0
sg7
I0
sg8
I0
ssI1601
(dp325
g3
I0
sg4
I0
sg5
I0
sg6
I0
sg7
I0
sg8
I0
ssI1602
(dp326
g3
I0
sg4
I0
sg5
I0
sg6
I0
sg7
I0
sg8
I0
ssI1603
(dp327
g3
I0
sg4
I0
sg5
I0
sg6
I0
sg7
I0
sg8
I0
ssI1101
(dp328
g3
I0
sg4
I0
sg5
I0
sg6
I0
sg7
I0
sg8
I0
ssI1102
(dp329
g3
I0
sg4
I0
sg5
I0
sg6
I0
sg7
I0
sg8
I0
ssI1103
(dp330
g3
I0
sg4
I0
sg5
I0
sg6
I0
sg7
I0
sg8
I0
ssI601
(dp331
g3
I0
sg4
I0
sg5
I0
sg6
I0
sg7
I0
sg8
I0
ssI602
(dp332
g3
I0
sg4
I0
sg5
I0
sg6
I0
sg7
I0
sg8
I0
ssI603
(dp333
g3
I0
sg4
I0
sg5
I0
sg6
I0
sg7
I0
sg8
I0
ssI101
(dp334
g3
I0
sg4
I0
sg5
I0
sg6
I0
sg7
I0
sg8
I0
ssI102
(dp335
g3
I0
sg4
I0
sg5
I0
sg6
I0
sg7
I0
sg8
I0
ssI103
(dp336
g3
I0
sg4
I0
sg5
I0
sg6
I0
sg7
I0
sg8
I0
ssI1901
(dp337
g3
I0
sg4
I0
sg5
I0
sg6
I0
sg7
I0
sg8
I0
ssI1902
(dp338
g3
I0
sg4
I0
sg5
I0
sg6
I0
sg7
I0
sg8
I0
ssI1903
(dp339
g3
I0
sg4
I0
sg5
I0
sg6
I0
sg7
I0
sg8
I0
ssI1401
(dp340
g3
I0
sg4
I0
sg5
I0
sg6
I0
sg7
I0
sg8
I0
ssI1402
(dp341
g3
I0
sg4
I0
sg5
I0
sg6
I0
sg7
I0
sg8
I0
ssI1403
(dp342
g3
I0
sg4
I0
sg5
I0
sg6
I0
sg7
I0
sg8
I0
ssI901
(dp343
g3
I0
sg4
I0
sg5
I0
sg6
I0
sg7
I0
sg8
I0
ssI902
(dp344
g3
I0
sg4
I0
sg5
I0
sg6
I0
sg7
I0
sg8
I0
ssI903
(dp345
g3
I0
sg4
I0
sg5
I0
sg6
I0
sg7
I0
sg8
I0
ssI401
(dp346
g3
I0
sg4
I0
sg5
I0
sg6
I0
sg7
I0
sg8
I0
ssI402
(dp347
g3
I0
sg4
I0
sg5
I0
sg6
I0
sg7
I0
sg8
I0
ssI403
(dp348
g3
I0
sg4
I0
sg5
I0
sg6
I0
sg7
I0
sg8
I0
ssI1701
(dp349
g3
I0
sg4
I0
sg5
I0
sg6
I0
sg7
I0
sg8
I0
ssI1702
(dp350
g3
I0
sg4
I0
sg5
I0
sg6
I0
sg7
I0
sg8
I0
ssI1703
(dp351
g3
I0
sg4
I0
sg5
I0
sg6
I0
sg7
I0
sg8
I0
ssI1201
(dp352
g3
I0
sg4
I0
sg5
I0
sg6
I0
sg7
I0
sg8
I0
ssI1202
(dp353
g3
I0
sg4
I0
sg5
I0
sg6
I0
sg7
I0
sg8
I0
ssI1203
(dp354
g3
I0
sg4
I0
sg5
I0
sg6
I0
sg7
I0
sg8
I0
ssI701
(dp355
g3
I0
sg4
I0
sg5
I0
sg6
I0
sg7
I0
sg8
I0
ssI702
(dp356
g3
I0
sg4
I0
sg5
I0
sg6
I0
sg7
I0
sg8
I0
ssI703
(dp357
g3
I0
sg4
I0
sg5
I0
sg6
I0
sg7
I0
sg8
I0
ssI201
(dp358
g3
I0
sg4
I0
sg5
I0
sg6
I0
sg7
I0
sg8
I0
ssI202
(dp359
g3
I0
sg4
I0
sg5
I0
sg6
I0
sg7
I0
sg8
I0
ssI203
(dp360
g3
I0
sg4
I0
sg5
I0
sg6
I0
sg7
I0
sg8
I0
ssI2001
(dp361
g3
I0
sg4
I0
sg5
I0
sg6
I0
sg7
I0
sg8
I0
ssI2002
(dp362
g3
I0
sg4
I0
sg5
I0
sg6
I0
sg7
I0
sg8
I0
ssI2003
(dp363
g3
I0
sg4
I0
sg5
I0
sg6
I0
sg7
I0
sg8
I0
ssI1501
(dp364
g3
I0
sg4
I0
sg5
I0
sg6
I0
sg7
I0
sg8
I0
ssI1502
(dp365
g3
I0
sg4
I0
sg5
I0
sg6
I0
sg7
I0
sg8
I0
ssI1503
(dp366
g3
I0
sg4
I0
sg5
I0
sg6
I0
sg7
I0
sg8
I0
ssI1001
(dp367
g3
I0
sg4
I0
sg5
I0
sg6
I0
sg7
I0
sg8
I0
ssI1002
(dp368
g3
I0
sg4
I0
sg5
I0
sg6
I0
sg7
I0
sg8
I0
ssI1003
(dp369
g3
I0
sg4
I0
sg5
I0
sg6
I0
sg7
I0
sg8
I0
ssI501
(dp370
g3
I0
sg4
I0
sg5
I0
sg6
I0
sg7
I0
sg8
I0
ssI502
(dp371
g3
I0
sg4
I0
sg5
I0
sg6
I0
sg7
I0
sg8
I0
ssI503
(dp372
g3
I0
sg4
I0
sg5
I0
sg6
I0
sg7
I0
sg8
I0
sssI7
(dp373
I1801
(dp374
g3
I0
sg4
I0
sg5
I0
sg6
I0
sg7
I0
sg8
I0
ssI1802
(dp375
g3
I0
sg4
I0
sg5
I0
sg6
I0
sg7
I0
sg8
I0
ssI1803
(dp376
g3
I0
sg4
I0
sg5
I0
sg6
I0
sg7
I0
sg8
I0
ssI1301
(dp377
g3
I0
sg4
I0
sg5
I0
sg6
I0
sg7
I0
sg8
I0
ssI1302
(dp378
g3
I0
sg4
I0
sg5
I0
sg6
I0
sg7
I0
sg8
I0
ssI1303
(dp379
g3
I0
sg4
I0
sg5
I0
sg6
I0
sg7
I0
sg8
I0
ssI801
(dp380
g3
I0
sg4
I0
sg5
I0
sg6
I0
sg7
I0
sg8
I0
ssI802
(dp381
g3
I0
sg4
I0
sg5
I0
sg6
I0
sg7
I0
sg8
I0
ssI803
(dp382
g3
I0
sg4
I0
sg5
I0
sg6
I0
sg7
I0
sg8
I0
ssI301
(dp383
g3
I0
sg4
I0
sg5
I0
sg6
I0
sg7
I0
sg8
I0
ssI302
(dp384
g3
I0
sg4
I0
sg5
I0
sg6
I0
sg7
I0
sg8
I0
ssI303
(dp385
g3
I0
sg4
I0
sg5
I0
sg6
I0
sg7
I0
sg8
I0
ssI1601
(dp386
g3
I0
sg4
I0
sg5
I0
sg6
I0
sg7
I0
sg8
I0
ssI1602
(dp387
g3
I0
sg4
I0
sg5
I0
sg6
I0
sg7
I0
sg8
I0
ssI1603
(dp388
g3
I0
sg4
I0
sg5
I0
sg6
I0
sg7
I0
sg8
I0
ssI1101
(dp389
g3
I0
sg4
I0
sg5
I0
sg6
I0
sg7
I0
sg8
I0
ssI1102
(dp390
g3
I0
sg4
I0
sg5
I0
sg6
I0
sg7
I0
sg8
I0
ssI1103
(dp391
g3
I0
sg4
I0
sg5
I0
sg6
I0
sg7
I0
sg8
I0
ssI601
(dp392
g3
I0
sg4
I0
sg5
I0
sg6
I0
sg7
I0
sg8
I0
ssI602
(dp393
g3
I0
sg4
I0
sg5
I0
sg6
I0
sg7
I0
sg8
I0
ssI603
(dp394
g3
I0
sg4
I0
sg5
I0
sg6
I0
sg7
I0
sg8
I0
ssI101
(dp395
g3
I0
sg4
I0
sg5
I0
sg6
I0
sg7
I0
sg8
I0
ssI102
(dp396
g3
I0
sg4
I0
sg5
I0
sg6
I0
sg7
I0
sg8
I0
ssI103
(dp397
g3
I0
sg4
I0
sg5
I0
sg6
I0
sg7
I0
sg8
I0
ssI1901
(dp398
g3
I0
sg4
I0
sg5
I0
sg6
I0
sg7
I0
sg8
I0
ssI1902
(dp399
g3
I0
sg4
I0
sg5
I0
sg6
I0
sg7
I0
sg8
I0
ssI1903
(dp400
g3
I0
sg4
I0
sg5
I0
sg6
I0
sg7
I0
sg8
I0
ssI1401
(dp401
g3
I0
sg4
I0
sg5
I0
sg6
I0
sg7
I0
sg8
I0
ssI1402
(dp402
g3
I0
sg4
I0
sg5
I0
sg6
I0
sg7
I0
sg8
I0
ssI1403
(dp403
g3
I0
sg4
I0
sg5
I0
sg6
I0
sg7
I0
sg8
I0
ssI901
(dp404
g3
I0
sg4
I0
sg5
I0
sg6
I0
sg7
I0
sg8
I0
ssI902
(dp405
g3
I0
sg4
I0
sg5
I0
sg6
I0
sg7
I0
sg8
I0
ssI903
(dp406
g3
I0
sg4
I0
sg5
I0
sg6
I0
sg7
I0
sg8
I0
ssI401
(dp407
g3
I0
sg4
I0
sg5
I0
sg6
I0
sg7
I0
sg8
I0
ssI402
(dp408
g3
I0
sg4
I0
sg5
I0
sg6
I0
sg7
I0
sg8
I0
ssI403
(dp409
g3
I0
sg4
I0
sg5
I0
sg6
I0
sg7
I0
sg8
I0
ssI1701
(dp410
g3
I0
sg4
I0
sg5
I0
sg6
I0
sg7
I0
sg8
I0
ssI1702
(dp411
g3
I0
sg4
I0
sg5
I0
sg6
I0
sg7
I0
sg8
I0
ssI1703
(dp412
g3
I0
sg4
I0
sg5
I0
sg6
I0
sg7
I0
sg8
I0
ssI1201
(dp413
g3
I0
sg4
I0
sg5
I0
sg6
I0
sg7
I0
sg8
I0
ssI1202
(dp414
g3
I0
sg4
I0
sg5
I0
sg6
I0
sg7
I0
sg8
I0
ssI1203
(dp415
g3
I0
sg4
I0
sg5
I0
sg6
I0
sg7
I0
sg8
I0
ssI701
(dp416
g3
I0
sg4
I0
sg5
I0
sg6
I0
sg7
I0
sg8
I0
ssI702
(dp417
g3
I0
sg4
I0
sg5
I0
sg6
I0
sg7
I0
sg8
I0
ssI703
(dp418
g3
I0
sg4
I0
sg5
I0
sg6
I0
sg7
I0
sg8
I0
ssI201
(dp419
g3
I0
sg4
I0
sg5
I0
sg6
I0
sg7
I0
sg8
I0
ssI202
(dp420
g3
I0
sg4
I0
sg5
I0
sg6
I0
sg7
I0
sg8
I0
ssI203
(dp421
g3
I0
sg4
I0
sg5
I0
sg6
I0
sg7
I0
sg8
I0
ssI2001
(dp422
g3
I0
sg4
I0
sg5
I0
sg6
I0
sg7
I0
sg8
I0
ssI2002
(dp423
g3
I0
sg4
I0
sg5
I0
sg6
I0
sg7
I0
sg8
I0
ssI2003
(dp424
g3
I0
sg4
I0
sg5
I0
sg6
I0
sg7
I0
sg8
I0
ssI1501
(dp425
g3
I0
sg4
I0
sg5
I0
sg6
I0
sg7
I0
sg8
I0
ssI1502
(dp426
g3
I0
sg4
I0
sg5
I0
sg6
I0
sg7
I0
sg8
I0
ssI1503
(dp427
g3
I0
sg4
I0
sg5
I0
sg6
I0
sg7
I0
sg8
I0
ssI1001
(dp428
g3
I0
sg4
I0
sg5
I0
sg6
I0
sg7
I0
sg8
I0
ssI1002
(dp429
g3
I0
sg4
I0
sg5
I0
sg6
I0
sg7
I0
sg8
I0
ssI1003
(dp430
g3
I0
sg4
I0
sg5
I0
sg6
I0
sg7
I0
sg8
I0
ssI501
(dp431
g3
I0
sg4
I0
sg5
I0
sg6
I0
sg7
I0
sg8
I0
ssI502
(dp432
g3
I0
sg4
I0
sg5
I0
sg6
I0
sg7
I0
sg8
I0
ssI503
(dp433
g3
I0
sg4
I0
sg5
I0
sg6
I0
sg7
I0
sg8
I0
sssI8
(dp434
I1801
(dp435
g3
I0
sg4
I0
sg5
I0
sg6
I0
sg7
I0
sg8
I0
ssI1802
(dp436
g3
I0
sg4
I0
sg5
I0
sg6
I0
sg7
I0
sg8
I0
ssI1803
(dp437
g3
I0
sg4
I0
sg5
I0
sg6
I0
sg7
I0
sg8
I0
ssI1301
(dp438
g3
I0
sg4
I0
sg5
I0
sg6
I0
sg7
I0
sg8
I0
ssI1302
(dp439
g3
I0
sg4
I0
sg5
I0
sg6
I0
sg7
I0
sg8
I0
ssI1303
(dp440
g3
I0
sg4
I0
sg5
I0
sg6
I0
sg7
I0
sg8
I0
ssI801
(dp441
g3
I0
sg4
I0
sg5
I0
sg6
I0
sg7
I0
sg8
I0
ssI802
(dp442
g3
I0
sg4
I0
sg5
I0
sg6
I0
sg7
I0
sg8
I0
ssI803
(dp443
g3
I0
sg4
I0
sg5
I0
sg6
I0
sg7
I0
sg8
I0
ssI301
(dp444
g3
I0
sg4
I0
sg5
I0
sg6
I0
sg7
I0
sg8
I0
ssI302
(dp445
g3
I0
sg4
I0
sg5
I0
sg6
I0
sg7
I0
sg8
I0
ssI303
(dp446
g3
I0
sg4
I0
sg5
I0
sg6
I0
sg7
I0
sg8
I0
ssI1601
(dp447
g3
I0
sg4
I0
sg5
I0
sg6
I0
sg7
I0
sg8
I0
ssI1602
(dp448
g3
I0
sg4
I0
sg5
I0
sg6
I0
sg7
I0
sg8
I0
ssI1603
(dp449
g3
I0
sg4
I0
sg5
I0
sg6
I0
sg7
I0
sg8
I0
ssI1101
(dp450
g3
I0
sg4
I0
sg5
I0
sg6
I0
sg7
I0
sg8
I0
ssI1102
(dp451
g3
I0
sg4
I0
sg5
I0
sg6
I0
sg7
I0
sg8
I0
ssI1103
(dp452
g3
I0
sg4
I0
sg5
I0
sg6
I0
sg7
I0
sg8
I0
ssI601
(dp453
g3
I0
sg4
I0
sg5
I0
sg6
I0
sg7
I0
sg8
I0
ssI602
(dp454
g3
I0
sg4
I0
sg5
I0
sg6
I0
sg7
I0
sg8
I0
ssI603
(dp455
g3
I0
sg4
I0
sg5
I0
sg6
I0
sg7
I0
sg8
I0
ssI101
(dp456
g3
I0
sg4
I0
sg5
I0
sg6
I0
sg7
I0
sg8
I0
ssI102
(dp457
g3
I0
sg4
I0
sg5
I0
sg6
I0
sg7
I0
sg8
I0
ssI103
(dp458
g3
I0
sg4
I0
sg5
I0
sg6
I0
sg7
I0
sg8
I0
ssI1901
(dp459
g3
I0
sg4
I0
sg5
I0
sg6
I0
sg7
I0
sg8
I0
ssI1902
(dp460
g3
I0
sg4
I0
sg5
I0
sg6
I0
sg7
I0
sg8
I0
ssI1903
(dp461
g3
I0
sg4
I0
sg5
I0
sg6
I0
sg7
I0
sg8
I0
ssI1401
(dp462
g3
I0
sg4
I0
sg5
I0
sg6
I0
sg7
I0
sg8
I0
ssI1402
(dp463
g3
I0
sg4
I0
sg5
I0
sg6
I0
sg7
I0
sg8
I0
ssI1403
(dp464
g3
I0
sg4
I0
sg5
I0
sg6
I0
sg7
I0
sg8
I0
ssI901
(dp465
g3
I0
sg4
I0
sg5
I0
sg6
I0
sg7
I0
sg8
I0
ssI902
(dp466
g3
I0
sg4
I0
sg5
I0
sg6
I0
sg7
I0
sg8
I0
ssI903
(dp467
g3
I0
sg4
I0
sg5
I0
sg6
I0
sg7
I0
sg8
I0
ssI401
(dp468
g3
I0
sg4
I0
sg5
I0
sg6
I0
sg7
I0
sg8
I0
ssI402
(dp469
g3
I0
sg4
I0
sg5
I0
sg6
I0
sg7
I0
sg8
I0
ssI403
(dp470
g3
I0
sg4
I0
sg5
I0
sg6
I0
sg7
I0
sg8
I0
ssI1701
(dp471
g3
I0
sg4
I0
sg5
I0
sg6
I0
sg7
I0
sg8
I0
ssI1702
(dp472
g3
I0
sg4
I0
sg5
I0
sg6
I0
sg7
I0
sg8
I0
ssI1703
(dp473
g3
I0
sg4
I0
sg5
I0
sg6
I0
sg7
I0
sg8
I0
ssI1201
(dp474
g3
I0
sg4
I0
sg5
I0
sg6
I0
sg7
I0
sg8
I0
ssI1202
(dp475
g3
I0
sg4
I0
sg5
I0
sg6
I0
sg7
I0
sg8
I0
ssI1203
(dp476
g3
I0
sg4
I0
sg5
I0
sg6
I0
sg7
I0
sg8
I0
ssI701
(dp477
g3
I0
sg4
I0
sg5
I0
sg6
I0
sg7
I0
sg8
I0
ssI702
(dp478
g3
I0
sg4
I0
sg5
I0
sg6
I0
sg7
I0
sg8
I0
ssI703
(dp479
g3
I0
sg4
I0
sg5
I0
sg6
I0
sg7
I0
sg8
I0
ssI201
(dp480
g3
I0
sg4
I0
sg5
I0
sg6
I0
sg7
I0
sg8
I0
ssI202
(dp481
g3
I0
sg4
I0
sg5
I0
sg6
I0
sg7
I0
sg8
I0
ssI203
(dp482
g3
I0
sg4
I0
sg5
I0
sg6
I0
sg7
I0
sg8
I0
ssI2001
(dp483
g3
I0
sg4
I0
sg5
I0
sg6
I0
sg7
I0
sg8
I0
ssI2002
(dp484
g3
I0
sg4
I0
sg5
I0
sg6
I0
sg7
I0
sg8
I0
ssI2003
(dp485
g3
I0
sg4
I0
sg5
I0
sg6
I0
sg7
I0
sg8
I0
ssI1501
(dp486
g3
I0
sg4
I0
sg5
I0
sg6
I0
sg7
I0
sg8
I0
ssI1502
(dp487
g3
I0
sg4
I0
sg5
I0
sg6
I0
sg7
I0
sg8
I0
ssI1503
(dp488
g3
I0
sg4
I0
sg5
I0
sg6
I0
sg7
I0
sg8
I0
ssI1001
(dp489
g3
I0
sg4
I0
sg5
I0
sg6
I0
sg7
I0
sg8
I0
ssI1002
(dp490
g3
I0
sg4
I0
sg5
I0
sg6
I0
sg7
I0
sg8
I0
ssI1003
(dp491
g3
I0
sg4
I0
sg5
I0
sg6
I0
sg7
I0
sg8
I0
ssI501
(dp492
g3
I0
sg4
I0
sg5
I0
sg6
I0
sg7
I0
sg8
I0
ssI502
(dp493
g3
I0
sg4
I0
sg5
I0
sg6
I0
sg7
I0
sg8
I0
ssI503
(dp494
g3
I0
sg4
I0
sg5
I0
sg6
I0
sg7
I0
sg8
I0
sssI9
(dp495
I1801
(dp496
g3
I0
sg4
I0
sg5
I0
sg6
I0
sg7
I0
sg8
I0
ssI1802
(dp497
g3
I0
sg4
I0
sg5
I0
sg6
I0
sg7
I0
sg8
I0
ssI1803
(dp498
g3
I0
sg4
I0
sg5
I0
sg6
I0
sg7
I0
sg8
I0
ssI1301
(dp499
g3
I0
sg4
I0
sg5
I0
sg6
I0
sg7
I0
sg8
I0
ssI1302
(dp500
g3
I0
sg4
I0
sg5
I0
sg6
I0
sg7
I0
sg8
I0
ssI1303
(dp501
g3
I0
sg4
I0
sg5
I0
sg6
I0
sg7
I0
sg8
I0
ssI801
(dp502
g3
I0
sg4
I0
sg5
I0
sg6
I0
sg7
I0
sg8
I0
ssI802
(dp503
g3
I0
sg4
I0
sg5
I0
sg6
I0
sg7
I0
sg8
I0
ssI803
(dp504
g3
I0
sg4
I0
sg5
I0
sg6
I0
sg7
I0
sg8
I0
ssI301
(dp505
g3
I0
sg4
I0
sg5
I0
sg6
I0
sg7
I0
sg8
I0
ssI302
(dp506
g3
I0
sg4
I0
sg5
I0
sg6
I0
sg7
I0
sg8
I0
ssI303
(dp507
g3
I0
sg4
I0
sg5
I0
sg6
I0
sg7
I0
sg8
I0
ssI1601
(dp508
g3
I0
sg4
I0
sg5
I0
sg6
I0
sg7
I0
sg8
I0
ssI1602
(dp509
g3
I0
sg4
I0
sg5
I0
sg6
I0
sg7
I0
sg8
I0
ssI1603
(dp510
g3
I0
sg4
I0
sg5
I0
sg6
I0
sg7
I0
sg8
I0
ssI1101
(dp511
g3
I0
sg4
I0
sg5
I0
sg6
I0
sg7
I0
sg8
I0
ssI1102
(dp512
g3
I0
sg4
I0
sg5
I0
sg6
I0
sg7
I0
sg8
I0
ssI1103
(dp513
g3
I0
sg4
I0
sg5
I0
sg6
I0
sg7
I0
sg8
I0
ssI601
(dp514
g3
I0
sg4
I0
sg5
I0
sg6
I0
sg7
I0
sg8
I0
ssI602
(dp515
g3
I0
sg4
I0
sg5
I0
sg6
I0
sg7
I0
sg8
I0
ssI603
(dp516
g3
I0
sg4
I0
sg5
I0
sg6
I0
sg7
I0
sg8
I0
ssI101
(dp517
g3
I0
sg4
I0
sg5
I0
sg6
I0
sg7
I0
sg8
I0
ssI102
(dp518
g3
I0
sg4
I0
sg5
I0
sg6
I0
sg7
I0
sg8
I0
ssI103
(dp519
g3
I0
sg4
I0
sg5
I0
sg6
I0
sg7
I0
sg8
I0
ssI1901
(dp520
g3
I0
sg4
I0
sg5
I0
sg6
I0
sg7
I0
sg8
I0
ssI1902
(dp521
g3
I0
sg4
I0
sg5
I0
sg6
I0
sg7
I0
sg8
I0
ssI1903
(dp522
g3
I0
sg4
I0
sg5
I0
sg6
I0
sg7
I0
sg8
I0
ssI1401
(dp523
g3
I0
sg4
I0
sg5
I0
sg6
I0
sg7
I0
sg8
I0
ssI1402
(dp524
g3
I0
sg4
I0
sg5
I0
sg6
I0
sg7
I0
sg8
I0
ssI1403
(dp525
g3
I0
sg4
I0
sg5
I0
sg6
I0
sg7
I0
sg8
I0
ssI901
(dp526
g3
I0
sg4
I0
sg5
I0
sg6
I0
sg7
I0
sg8
I0
ssI902
(dp527
g3
I0
sg4
I0
sg5
I0
sg6
I0
sg7
I0
sg8
I0
ssI903
(dp528
g3
I0
sg4
I0
sg5
I0
sg6
I0
sg7
I0
sg8
I0
ssI401
(dp529
g3
I0
sg4
I0
sg5
I0
sg6
I0
sg7
I0
sg8
I0
ssI402
(dp530
g3
I0
sg4
I0
sg5
I0
sg6
I0
sg7
I0
sg8
I0
ssI403
(dp531
g3
I0
sg4
I0
sg5
I0
sg6
I0
sg7
I0
sg8
I0
ssI1701
(dp532
g3
I0
sg4
I0
sg5
I0
sg6
I0
sg7
I0
sg8
I0
ssI1702
(dp533
g3
I0
sg4
I0
sg5
I0
sg6
I0
sg7
I0
sg8
I0
ssI1703
(dp534
g3
I0
sg4
I0
sg5
I0
sg6
I0
sg7
I0
sg8
I0
ssI1201
(dp535
g3
I0
sg4
I0
sg5
I0
sg6
I0
sg7
I0
sg8
I0
ssI1202
(dp536
g3
I0
sg4
I0
sg5
I0
sg6
I0
sg7
I0
sg8
I0
ssI1203
(dp537
g3
I0
sg4
I0
sg5
I0
sg6
I0
sg7
I0
sg8
I0
ssI701
(dp538
g3
I0
sg4
I0
sg5
I0
sg6
I0
sg7
I0
sg8
I0
ssI702
(dp539
g3
I0
sg4
I0
sg5
I0
sg6
I0
sg7
I0
sg8
I0
ssI703
(dp540
g3
I0
sg4
I0
sg5
I0
sg6
I0
sg7
I0
sg8
I0
ssI201
(dp541
g3
I0
sg4
I0
sg5
I0
sg6
I0
sg7
I0
sg8
I0
ssI202
(dp542
g3
I0
sg4
I0
sg5
I0
sg6
I0
sg7
I0
sg8
I0
ssI203
(dp543
g3
I0
sg4
I0
sg5
I0
sg6
I0
sg7
I0
sg8
I0
ssI2001
(dp544
g3
I0
sg4
I0
sg5
I0
sg6
I0
sg7
I0
sg8
I0
ssI2002
(dp545
g3
I0
sg4
I0
sg5
I0
sg6
I0
sg7
I0
sg8
I0
ssI2003
(dp546
g3
I0
sg4
I0
sg5
I0
sg6
I0
sg7
I0
sg8
I0
ssI1501
(dp547
g3
I0
sg4
I0
sg5
I0
sg6
I0
sg7
I0
sg8
I0
ssI1502
(dp548
g3
I0
sg4
I0
sg5
I0
sg6
I0
sg7
I0
sg8
I0
ssI1503
(dp549
g3
I0
sg4
I0
sg5
I0
sg6
I0
sg7
I0
sg8
I0
ssI1001
(dp550
g3
I0
sg4
I0
sg5
I0
sg6
I0
sg7
I0
sg8
I0
ssI1002
(dp551
g3
I0
sg4
I0
sg5
I0
sg6
I0
sg7
I0
sg8
I0
ssI1003
(dp552
g3
I0
sg4
I0
sg5
I0
sg6
I0
sg7
I0
sg8
I0
ssI501
(dp553
g3
I0
sg4
I0
sg5
I0
sg6
I0
sg7
I0
sg8
I0
ssI502
(dp554
g3
I0
sg4
I0
sg5
I0
sg6
I0
sg7
I0
sg8
I0
ssI503
(dp555
g3
I0
sg4
I0
sg5
I0
sg6
I0
sg7
I0
sg8
I0
sssI10
(dp556
I1801
(dp557
g3
I0
sg4
I0
sg5
I0
sg6
I0
sg7
I0
sg8
I0
ssI1802
(dp558
g3
I0
sg4
I0
sg5
I0
sg6
I0
sg7
I0
sg8
I0
ssI1803
(dp559
g3
I0
sg4
I0
sg5
I0
sg6
I0
sg7
I0
sg8
I0
ssI1301
(dp560
g3
I0
sg4
I0
sg5
I0
sg6
I0
sg7
I0
sg8
I0
ssI1302
(dp561
g3
I0
sg4
I0
sg5
I0
sg6
I0
sg7
I0
sg8
I0
ssI1303
(dp562
g3
I0
sg4
I0
sg5
I0
sg6
I0
sg7
I0
sg8
I0
ssI801
(dp563
g3
I0
sg4
I0
sg5
I0
sg6
I0
sg7
I0
sg8
I0
ssI802
(dp564
g3
I0
sg4
I0
sg5
I0
sg6
I0
sg7
I0
sg8
I0
ssI803
(dp565
g3
I0
sg4
I0
sg5
I0
sg6
I0
sg7
I0
sg8
I0
ssI301
(dp566
g3
I0
sg4
I0
sg5
I0
sg6
I0
sg7
I0
sg8
I0
ssI302
(dp567
g3
I0
sg4
I0
sg5
I0
sg6
I0
sg7
I0
sg8
I0
ssI303
(dp568
g3
I0
sg4
I0
sg5
I0
sg6
I0
sg7
I0
sg8
I0
ssI1601
(dp569
g3
I0
sg4
I0
sg5
I0
sg6
I0
sg7
I0
sg8
I0
ssI1602
(dp570
g3
I0
sg4
I0
sg5
I0
sg6
I0
sg7
I0
sg8
I0
ssI1603
(dp571
g3
I0
sg4
I0
sg5
I0
sg6
I0
sg7
I0
sg8
I0
ssI1101
(dp572
g3
I0
sg4
I0
sg5
I0
sg6
I0
sg7
I0
sg8
I0
ssI1102
(dp573
g3
I0
sg4
I0
sg5
I0
sg6
I0
sg7
I0
sg8
I0
ssI1103
(dp574
g3
I0
sg4
I0
sg5
I0
sg6
I0
sg7
I0
sg8
I0
ssI601
(dp575
g3
I0
sg4
I0
sg5
I0
sg6
I0
sg7
I0
sg8
I0
ssI602
(dp576
g3
I0
sg4
I0
sg5
I0
sg6
I0
sg7
I0
sg8
I0
ssI603
(dp577
g3
I0
sg4
I0
sg5
I0
sg6
I0
sg7
I0
sg8
I0
ssI101
(dp578
g3
I0
sg4
I0
sg5
I0
sg6
I0
sg7
I0
sg8
I0
ssI102
(dp579
g3
I0
sg4
I0
sg5
I0
sg6
I0
sg7
I0
sg8
I0
ssI103
(dp580
g3
I0
sg4
I0
sg5
I0
sg6
I0
sg7
I0
sg8
I0
ssI1901
(dp581
g3
I0
sg4
I0
sg5
I0
sg6
I0
sg7
I0
sg8
I0
ssI1902
(dp582
g3
I0
sg4
I0
sg5
I0
sg6
I0
sg7
I0
sg8
I0
ssI1903
(dp583
g3
I0
sg4
I0
sg5
I0
sg6
I0
sg7
I0
sg8
I0
ssI1401
(dp584
g3
I0
sg4
I0
sg5
I0
sg6
I0
sg7
I0
sg8
I0
ssI1402
(dp585
g3
I0
sg4
I0
sg5
I0
sg6
I0
sg7
I0
sg8
I0
ssI1403
(dp586
g3
I0
sg4
I0
sg5
I0
sg6
I0
sg7
I0
sg8
I0
ssI901
(dp587
g3
I0
sg4
I0
sg5
I0
sg6
I0
sg7
I0
sg8
I0
ssI902
(dp588
g3
I0
sg4
I0
sg5
I0
sg6
I0
sg7
I0
sg8
I0
ssI903
(dp589
g3
I0
sg4
I0
sg5
I0
sg6
I0
sg7
I0
sg8
I0
ssI401
(dp590
g3
I0
sg4
I0
sg5
I0
sg6
I0
sg7
I0
sg8
I0
ssI402
(dp591
g3
I0
sg4
I0
sg5
I0
sg6
I0
sg7
I0
sg8
I0
ssI403
(dp592
g3
I0
sg4
I0
sg5
I0
sg6
I0
sg7
I0
sg8
I0
ssI1701
(dp593
g3
I0
sg4
I0
sg5
I0
sg6
I0
sg7
I0
sg8
I0
ssI1702
(dp594
g3
I0
sg4
I0
sg5
I0
sg6
I0
sg7
I0
sg8
I0
ssI1703
(dp595
g3
I0
sg4
I0
sg5
I0
sg6
I0
sg7
I0
sg8
I0
ssI1201
(dp596
g3
I0
sg4
I0
sg5
I0
sg6
I0
sg7
I0
sg8
I0
ssI1202
(dp597
g3
I0
sg4
I0
sg5
I0
sg6
I0
sg7
I0
sg8
I0
ssI1203
(dp598
g3
I0
sg4
I0
sg5
I0
sg6
I0
sg7
I0
sg8
I0
ssI701
(dp599
g3
I0
sg4
I0
sg5
I0
sg6
I0
sg7
I0
sg8
I0
ssI702
(dp600
g3
I0
sg4
I0
sg5
I0
sg6
I0
sg7
I0
sg8
I0
ssI703
(dp601
g3
I0
sg4
I0
sg5
I0
sg6
I0
sg7
I0
sg8
I0
ssI201
(dp602
g3
I0
sg4
I0
sg5
I0
sg6
I0
sg7
I0
sg8
I0
ssI202
(dp603
g3
I0
sg4
I0
sg5
I0
sg6
I0
sg7
I0
sg8
I0
ssI203
(dp604
g3
I0
sg4
I0
sg5
I0
sg6
I0
sg7
I0
sg8
I0
ssI2001
(dp605
g3
I0
sg4
I0
sg5
I0
sg6
I0
sg7
I0
sg8
I0
ssI2002
(dp606
g3
I0
sg4
I0
sg5
I0
sg6
I0
sg7
I0
sg8
I0
ssI2003
(dp607
g3
I0
sg4
I0
sg5
I0
sg6
I0
sg7
I0
sg8
I0
ssI1501
(dp608
g3
I0
sg4
I0
sg5
I0
sg6
I0
sg7
I0
sg8
I0
ssI1502
(dp609
g3
I0
sg4
I0
sg5
I0
sg6
I0
sg7
I0
sg8
I0
ssI1503
(dp610
g3
I0
sg4
I0
sg5
I0
sg6
I0
sg7
I0
sg8
I0
ssI1001
(dp611
g3
I0
sg4
I0
sg5
I0
sg6
I0
sg7
I0
sg8
I0
ssI1002
(dp612
g3
I0
sg4
I0
sg5
I0
sg6
I0
sg7
I0
sg8
I0
ssI1003
(dp613
g3
I0
sg4
I0
sg5
I0
sg6
I0
sg7
I0
sg8
I0
ssI501
(dp614
g3
I0
sg4
I0
sg5
I0
sg6
I0
sg7
I0
sg8
I0
ssI502
(dp615
g3
I0
sg4
I0
sg5
I0
sg6
I0
sg7
I0
sg8
I0
ssI503
(dp616
g3
I0
sg4
I0
sg5
I0
sg6
I0
sg7
I0
sg8
I0
sssI11
(dp617
I1801
(dp618
g3
I0
sg4
I0
sg5
I0
sg6
I0
sg7
I0
sg8
I0
ssI1802
(dp619
g3
I0
sg4
I0
sg5
I0
sg6
I0
sg7
I0
sg8
I0
ssI1803
(dp620
g3
I0
sg4
I0
sg5
I0
sg6
I0
sg7
I0
sg8
I0
ssI1301
(dp621
g3
I0
sg4
I0
sg5
I0
sg6
I0
sg7
I0
sg8
I0
ssI1302
(dp622
g3
I0
sg4
I0
sg5
I0
sg6
I0
sg7
I0
sg8
I0
ssI1303
(dp623
g3
I0
sg4
I0
sg5
I0
sg6
I0
sg7
I0
sg8
I0
ssI801
(dp624
g3
I0
sg4
I0
sg5
I0
sg6
I0
sg7
I0
sg8
I0
ssI802
(dp625
g3
I0
sg4
I0
sg5
I0
sg6
I0
sg7
I0
sg8
I0
ssI803
(dp626
g3
I0
sg4
I0
sg5
I0
sg6
I0
sg7
I0
sg8
I0
ssI301
(dp627
g3
I0
sg4
I0
sg5
I0
sg6
I0
sg7
I0
sg8
I0
ssI302
(dp628
g3
I0
sg4
I0
sg5
I0
sg6
I0
sg7
I0
sg8
I0
ssI303
(dp629
g3
I0
sg4
I0
sg5
I0
sg6
I0
sg7
I0
sg8
I0
ssI1601
(dp630
g3
I0
sg4
I0
sg5
I0
sg6
I0
sg7
I0
sg8
I0
ssI1602
(dp631
g3
I0
sg4
I0
sg5
I0
sg6
I0
sg7
I0
sg8
I0
ssI1603
(dp632
g3
I0
sg4
I0
sg5
I0
sg6
I0
sg7
I0
sg8
I0
ssI1101
(dp633
g3
I0
sg4
I0
sg5
I0
sg6
I0
sg7
I0
sg8
I0
ssI1102
(dp634
g3
I0
sg4
I0
sg5
I0
sg6
I0
sg7
I0
sg8
I0
ssI1103
(dp635
g3
I0
sg4
I0
sg5
I0
sg6
I0
sg7
I0
sg8
I0
ssI601
(dp636
g3
I0
sg4
I0
sg5
I0
sg6
I0
sg7
I0
sg8
I0
ssI602
(dp637
g3
I0
sg4
I0
sg5
I0
sg6
I0
sg7
I0
sg8
I0
ssI603
(dp638
g3
I0
sg4
I0
sg5
I0
sg6
I0
sg7
I0
sg8
I0
ssI101
(dp639
g3
I0
sg4
I0
sg5
I0
sg6
I0
sg7
I0
sg8
I0
ssI102
(dp640
g3
I0
sg4
I0
sg5
I0
sg6
I0
sg7
I0
sg8
I0
ssI103
(dp641
g3
I0
sg4
I0
sg5
I0
sg6
I0
sg7
I0
sg8
I0
ssI1901
(dp642
g3
I0
sg4
I0
sg5
I0
sg6
I0
sg7
I0
sg8
I0
ssI1902
(dp643
g3
I0
sg4
I0
sg5
I0
sg6
I0
sg7
I0
sg8
I0
ssI1903
(dp644
g3
I0
sg4
I0
sg5
I0
sg6
I0
sg7
I0
sg8
I0
ssI1401
(dp645
g3
I0
sg4
I0
sg5
I0
sg6
I0
sg7
I0
sg8
I0
ssI1402
(dp646
g3
I0
sg4
I0
sg5
I0
sg6
I0
sg7
I0
sg8
I0
ssI1403
(dp647
g3
I0
sg4
I0
sg5
I0
sg6
I0
sg7
I0
sg8
I0
ssI901
(dp648
g3
I0
sg4
I0
sg5
I0
sg6
I0
sg7
I0
sg8
I0
ssI902
(dp649
g3
I0
sg4
I0
sg5
I0
sg6
I0
sg7
I0
sg8
I0
ssI903
(dp650
g3
I0
sg4
I0
sg5
I0
sg6
I0
sg7
I0
sg8
I0
ssI401
(dp651
g3
I0
sg4
I0
sg5
I0
sg6
I0
sg7
I0
sg8
I0
ssI402
(dp652
g3
I0
sg4
I0
sg5
I0
sg6
I0
sg7
I0
sg8
I0
ssI403
(dp653
g3
I0
sg4
I0
sg5
I0
sg6
I0
sg7
I0
sg8
I0
ssI1701
(dp654
g3
I0
sg4
I0
sg5
I0
sg6
I0
sg7
I0
sg8
I0
ssI1702
(dp655
g3
I0
sg4
I0
sg5
I0
sg6
I0
sg7
I0
sg8
I0
ssI1703
(dp656
g3
I0
sg4
I0
sg5
I0
sg6
I0
sg7
I0
sg8
I0
ssI1201
(dp657
g3
I0
sg4
I0
sg5
I0
sg6
I0
sg7
I0
sg8
I0
ssI1202
(dp658
g3
I0
sg4
I0
sg5
I0
sg6
I0
sg7
I0
sg8
I0
ssI1203
(dp659
g3
I0
sg4
I0
sg5
I0
sg6
I0
sg7
I0
sg8
I0
ssI701
(dp660
g3
I0
sg4
I0
sg5
I0
sg6
I0
sg7
I0
sg8
I0
ssI702
(dp661
g3
I0
sg4
I0
sg5
I0
sg6
I0
sg7
I0
sg8
I0
ssI703
(dp662
g3
I0
sg4
I0
sg5
I0
sg6
I0
sg7
I0
sg8
I0
ssI201
(dp663
g3
I0
sg4
I0
sg5
I0
sg6
I0
sg7
I0
sg8
I0
ssI202
(dp664
g3
I0
sg4
I0
sg5
I0
sg6
I0
sg7
I0
sg8
I0
ssI203
(dp665
g3
I0
sg4
I0
sg5
I0
sg6
I0
sg7
I0
sg8
I0
ssI2001
(dp666
g3
I0
sg4
I0
sg5
I0
sg6
I0
sg7
I0
sg8
I0
ssI2002
(dp667
g3
I0
sg4
I0
sg5
I0
sg6
I0
sg7
I0
sg8
I0
ssI2003
(dp668
g3
I0
sg4
I0
sg5
I0
sg6
I0
sg7
I0
sg8
I0
ssI1501
(dp669
g3
I0
sg4
I0
sg5
I0
sg6
I0
sg7
I0
sg8
I0
ssI1502
(dp670
g3
I0
sg4
I0
sg5
I0
sg6
I0
sg7
I0
sg8
I0
ssI1503
(dp671
g3
I0
sg4
I0
sg5
I0
sg6
I0
sg7
I0
sg8
I0
ssI1001
(dp672
g3
I0
sg4
I0
sg5
I0
sg6
I0
sg7
I0
sg8
I0
ssI1002
(dp673
g3
I0
sg4
I0
sg5
I0
sg6
I0
sg7
I0
sg8
I0
ssI1003
(dp674
g3
I0
sg4
I0
sg5
I0
sg6
I0
sg7
I0
sg8
I0
ssI501
(dp675
g3
I0
sg4
I0
sg5
I0
sg6
I0
sg7
I0
sg8
I0
ssI502
(dp676
g3
I0
sg4
I0
sg5
I0
sg6
I0
sg7
I0
sg8
I0
ssI503
(dp677
g3
I0
sg4
I0
sg5
I0
sg6
I0
sg7
I0
sg8
I0
sssI12
(dp678
I1801
(dp679
g3
I0
sg4
I0
sg5
I0
sg6
I0
sg7
I0
sg8
I0
ssI1802
(dp680
g3
I0
sg4
I0
sg5
I0
sg6
I0
sg7
I0
sg8
I0
ssI1803
(dp681
g3
I0
sg4
I0
sg5
I0
sg6
I0
sg7
I0
sg8
I0
ssI1301
(dp682
g3
I0
sg4
I0
sg5
I0
sg6
I0
sg7
I0
sg8
I0
ssI1302
(dp683
g3
I0
sg4
I0
sg5
I0
sg6
I0
sg7
I0
sg8
I0
ssI1303
(dp684
g3
I0
sg4
I0
sg5
I0
sg6
I0
sg7
I0
sg8
I0
ssI801
(dp685
g3
I0
sg4
I0
sg5
I0
sg6
I0
sg7
I0
sg8
I0
ssI802
(dp686
g3
I0
sg4
I0
sg5
I0
sg6
I0
sg7
I0
sg8
I0
ssI803
(dp687
g3
I0
sg4
I0
sg5
I0
sg6
I0
sg7
I0
sg8
I0
ssI301
(dp688
g3
I0
sg4
I0
sg5
I0
sg6
I0
sg7
I0
sg8
I0
ssI302
(dp689
g3
I0
sg4
I0
sg5
I0
sg6
I0
sg7
I0
sg8
I0
ssI303
(dp690
g3
I0
sg4
I0
sg5
I0
sg6
I0
sg7
I0
sg8
I0
ssI1601
(dp691
g3
I0
sg4
I0
sg5
I0
sg6
I0
sg7
I0
sg8
I0
ssI1602
(dp692
g3
I0
sg4
I0
sg5
I0
sg6
I0
sg7
I0
sg8
I0
ssI1603
(dp693
g3
I0
sg4
I0
sg5
I0
sg6
I0
sg7
I0
sg8
I0
ssI1101
(dp694
g3
I0
sg4
I0
sg5
I0
sg6
I0
sg7
I0
sg8
I0
ssI1102
(dp695
g3
I0
sg4
I0
sg5
I0
sg6
I0
sg7
I0
sg8
I0
ssI1103
(dp696
g3
I0
sg4
I0
sg5
I0
sg6
I0
sg7
I0
sg8
I0
ssI601
(dp697
g3
I0
sg4
I0
sg5
I0
sg6
I0
sg7
I0
sg8
I0
ssI602
(dp698
g3
I0
sg4
I0
sg5
I0
sg6
I0
sg7
I0
sg8
I0
ssI603
(dp699
g3
I0
sg4
I0
sg5
I0
sg6
I0
sg7
I0
sg8
I0
ssI101
(dp700
g3
I0
sg4
I0
sg5
I0
sg6
I0
sg7
I0
sg8
I0
ssI102
(dp701
g3
I0
sg4
I0
sg5
I0
sg6
I0
sg7
I0
sg8
I0
ssI103
(dp702
g3
I0
sg4
I0
sg5
I0
sg6
I0
sg7
I0
sg8
I0
ssI1901
(dp703
g3
I0
sg4
I0
sg5
I0
sg6
I0
sg7
I0
sg8
I0
ssI1902
(dp704
g3
I0
sg4
I0
sg5
I0
sg6
I0
sg7
I0
sg8
I0
ssI1903
(dp705
g3
I0
sg4
I0
sg5
I0
sg6
I0
sg7
I0
sg8
I0
ssI1401
(dp706
g3
I0
sg4
I0
sg5
I0
sg6
I0
sg7
I0
sg8
I0
ssI1402
(dp707
g3
I0
sg4
I0
sg5
I0
sg6
I0
sg7
I0
sg8
I0
ssI1403
(dp708
g3
I0
sg4
I0
sg5
I0
sg6
I0
sg7
I0
sg8
I0
ssI901
(dp709
g3
I0
sg4
I0
sg5
I0
sg6
I0
sg7
I0
sg8
I0
ssI902
(dp710
g3
I0
sg4
I0
sg5
I0
sg6
I0
sg7
I0
sg8
I0
ssI903
(dp711
g3
I0
sg4
I0
sg5
I0
sg6
I0
sg7
I0
sg8
I0
ssI401
(dp712
g3
I0
sg4
I0
sg5
I0
sg6
I0
sg7
I0
sg8
I0
ssI402
(dp713
g3
I0
sg4
I0
sg5
I0
sg6
I0
sg7
I0
sg8
I0
ssI403
(dp714
g3
I0
sg4
I0
sg5
I0
sg6
I0
sg7
I0
sg8
I0
ssI1701
(dp715
g3
I0
sg4
I0
sg5
I0
sg6
I0
sg7
I0
sg8
I0
ssI1702
(dp716
g3
I0
sg4
I0
sg5
I0
sg6
I0
sg7
I0
sg8
I0
ssI1703
(dp717
g3
I0
sg4
I0
sg5
I0
sg6
I0
sg7
I0
sg8
I0
ssI1201
(dp718
g3
I0
sg4
I0
sg5
I0
sg6
I0
sg7
I0
sg8
I0
ssI1202
(dp719
g3
I0
sg4
I0
sg5
I0
sg6
I0
sg7
I0
sg8
I0
ssI1203
(dp720
g3
I0
sg4
I0
sg5
I0
sg6
I0
sg7
I0
sg8
I0
ssI701
(dp721
g3
I0
sg4
I0
sg5
I0
sg6
I0
sg7
I0
sg8
I0
ssI702
(dp722
g3
I0
sg4
I0
sg5
I0
sg6
I0
sg7
I0
sg8
I0
ssI703
(dp723
g3
I0
sg4
I0
sg5
I0
sg6
I0
sg7
I0
sg8
I0
ssI201
(dp724
g3
I0
sg4
I0
sg5
I0
sg6
I0
sg7
I0
sg8
I0
ssI202
(dp725
g3
I0
sg4
I0
sg5
I0
sg6
I0
sg7
I0
sg8
I0
ssI203
(dp726
g3
I0
sg4
I0
sg5
I0
sg6
I0
sg7
I0
sg8
I0
ssI2001
(dp727
g3
I0
sg4
I0
sg5
I0
sg6
I0
sg7
I0
sg8
I0
ssI2002
(dp728
g3
I0
sg4
I0
sg5
I0
sg6
I0
sg7
I0
sg8
I0
ssI2003
(dp729
g3
I0
sg4
I0
sg5
I0
sg6
I0
sg7
I0
sg8
I0
ssI1501
(dp730
g3
I0
sg4
I0
sg5
I0
sg6
I0
sg7
I0
sg8
I0
ssI1502
(dp731
g3
I0
sg4
I0
sg5
I0
sg6
I0
sg7
I0
sg8
I0
ssI1503
(dp732
g3
I0
sg4
I0
sg5
I0
sg6
I0
sg7
I0
sg8
I0
ssI1001
(dp733
g3
I0
sg4
I0
sg5
I0
sg6
I0
sg7
I0
sg8
I0
ssI1002
(dp734
g3
I0
sg4
I0
sg5
I0
sg6
I0
sg7
I0
sg8
I0
ssI1003
(dp735
g3
I0
sg4
I0
sg5
I0
sg6
I0
sg7
I0
sg8
I0
ssI501
(dp736
g3
I0
sg4
I0
sg5
I0
sg6
I0
sg7
I0
sg8
I0
ssI502
(dp737
g3
I0
sg4
I0
sg5
I0
sg6
I0
sg7
I0
sg8
I0
ssI503
(dp738
g3
I0
sg4
I0
sg5
I0
sg6
I0
sg7
I0
sg8
I0
sssI13
(dp739
I1801
(dp740
g3
I0
sg4
I0
sg5
I0
sg6
I0
sg7
I0
sg8
I0
ssI1802
(dp741
g3
I0
sg4
I0
sg5
I0
sg6
I0
sg7
I0
sg8
I0
ssI1803
(dp742
g3
I0
sg4
I0
sg5
I0
sg6
I0
sg7
I0
sg8
I0
ssI1301
(dp743
g3
I0
sg4
I0
sg5
I0
sg6
I0
sg7
I0
sg8
I0
ssI1302
(dp744
g3
I0
sg4
I0
sg5
I0
sg6
I0
sg7
I0
sg8
I0
ssI1303
(dp745
g3
I0
sg4
I0
sg5
I0
sg6
I0
sg7
I0
sg8
I0
ssI801
(dp746
g3
I0
sg4
I0
sg5
I0
sg6
I0
sg7
I0
sg8
I0
ssI802
(dp747
g3
I0
sg4
I0
sg5
I0
sg6
I0
sg7
I0
sg8
I0
ssI803
(dp748
g3
I0
sg4
I0
sg5
I0
sg6
I0
sg7
I0
sg8
I0
ssI301
(dp749
g3
I0
sg4
I0
sg5
I0
sg6
I0
sg7
I0
sg8
I0
ssI302
(dp750
g3
I0
sg4
I0
sg5
I0
sg6
I0
sg7
I0
sg8
I0
ssI303
(dp751
g3
I0
sg4
I0
sg5
I0
sg6
I0
sg7
I0
sg8
I0
ssI1601
(dp752
g3
I0
sg4
I0
sg5
I0
sg6
I0
sg7
I0
sg8
I0
ssI1602
(dp753
g3
I0
sg4
I0
sg5
I0
sg6
I0
sg7
I0
sg8
I0
ssI1603
(dp754
g3
I0
sg4
I0
sg5
I0
sg6
I0
sg7
I0
sg8
I0
ssI1101
(dp755
g3
I0
sg4
I0
sg5
I0
sg6
I0
sg7
I0
sg8
I0
ssI1102
(dp756
g3
I0
sg4
I0
sg5
I0
sg6
I0
sg7
I0
sg8
I0
ssI1103
(dp757
g3
I0
sg4
I0
sg5
I0
sg6
I0
sg7
I0
sg8
I0
ssI601
(dp758
g3
I0
sg4
I0
sg5
I0
sg6
I0
sg7
I0
sg8
I0
ssI602
(dp759
g3
I0
sg4
I0
sg5
I0
sg6
I0
sg7
I0
sg8
I0
ssI603
(dp760
g3
I0
sg4
I0
sg5
I0
sg6
I0
sg7
I0
sg8
I0
ssI101
(dp761
g3
I0
sg4
I0
sg5
I0
sg6
I0
sg7
I0
sg8
I0
ssI102
(dp762
g3
I0
sg4
I0
sg5
I0
sg6
I0
sg7
I0
sg8
I0
ssI103
(dp763
g3
I0
sg4
I0
sg5
I0
sg6
I0
sg7
I0
sg8
I0
ssI1901
(dp764
g3
I0
sg4
I0
sg5
I0
sg6
I0
sg7
I0
sg8
I0
ssI1902
(dp765
g3
I0
sg4
I0
sg5
I0
sg6
I0
sg7
I0
sg8
I0
ssI1903
(dp766
g3
I0
sg4
I0
sg5
I0
sg6
I0
sg7
I0
sg8
I0
ssI1401
(dp767
g3
I0
sg4
I0
sg5
I0
sg6
I0
sg7
I0
sg8
I0
ssI1402
(dp768
g3
I0
sg4
I0
sg5
I0
sg6
I0
sg7
I0
sg8
I0
ssI1403
(dp769
g3
I0
sg4
I0
sg5
I0
sg6
I0
sg7
I0
sg8
I0
ssI901
(dp770
g3
I0
sg4
I0
sg5
I0
sg6
I0
sg7
I0
sg8
I0
ssI902
(dp771
g3
I0
sg4
I0
sg5
I0
sg6
I0
sg7
I0
sg8
I0
ssI903
(dp772
g3
I0
sg4
I0
sg5
I0
sg6
I0
sg7
I0
sg8
I0
ssI401
(dp773
g3
I0
sg4
I0
sg5
I0
sg6
I0
sg7
I0
sg8
I0
ssI402
(dp774
g3
I0
sg4
I0
sg5
I0
sg6
I0
sg7
I0
sg8
I0
ssI403
(dp775
g3
I0
sg4
I0
sg5
I0
sg6
I0
sg7
I0
sg8
I0
ssI1701
(dp776
g3
I0
sg4
I0
sg5
I0
sg6
I0
sg7
I0
sg8
I0
ssI1702
(dp777
g3
I0
sg4
I0
sg5
I0
sg6
I0
sg7
I0
sg8
I0
ssI1703
(dp778
g3
I0
sg4
I0
sg5
I0
sg6
I0
sg7
I0
sg8
I0
ssI1201
(dp779
g3
I0
sg4
I0
sg5
I0
sg6
I0
sg7
I0
sg8
I0
ssI1202
(dp780
g3
I0
sg4
I0
sg5
I0
sg6
I0
sg7
I0
sg8
I0
ssI1203
(dp781
g3
I0
sg4
I0
sg5
I0
sg6
I0
sg7
I0
sg8
I0
ssI701
(dp782
g3
I0
sg4
I0
sg5
I0
sg6
I0
sg7
I0
sg8
I0
ssI702
(dp783
g3
I0
sg4
I0
sg5
I0
sg6
I0
sg7
I0
sg8
I0
ssI703
(dp784
g3
I0
sg4
I0
sg5
I0
sg6
I0
sg7
I0
sg8
I0
ssI201
(dp785
g3
I0
sg4
I0
sg5
I0
sg6
I0
sg7
I0
sg8
I0
ssI202
(dp786
g3
I0
sg4
I0
sg5
I0
sg6
I0
sg7
I0
sg8
I0
ssI203
(dp787
g3
I0
sg4
I0
sg5
I0
sg6
I0
sg7
I0
sg8
I0
ssI2001
(dp788
g3
I0
sg4
I0
sg5
I0
sg6
I0
sg7
I0
sg8
I0
ssI2002
(dp789
g3
I0
sg4
I0
sg5
I0
sg6
I0
sg7
I0
sg8
I0
ssI2003
(dp790
g3
I0
sg4
I0
sg5
I0
sg6
I0
sg7
I0
sg8
I0
ssI1501
(dp791
g3
I0
sg4
I0
sg5
I0
sg6
I0
sg7
I0
sg8
I0
ssI1502
(dp792
g3
I0
sg4
I0
sg5
I0
sg6
I0
sg7
I0
sg8
I0
ssI1503
(dp793
g3
I0
sg4
I0
sg5
I0
sg6
I0
sg7
I0
sg8
I0
ssI1001
(dp794
g3
I0
sg4
I0
sg5
I0
sg6
I0
sg7
I0
sg8
I0
ssI1002
(dp795
g3
I0
sg4
I0
sg5
I0
sg6
I0
sg7
I0
sg8
I0
ssI1003
(dp796
g3
I0
sg4
I0
sg5
I0
sg6
I0
sg7
I0
sg8
I0
ssI501
(dp797
g3
I0
sg4
I0
sg5
I0
sg6
I0
sg7
I0
sg8
I0
ssI502
(dp798
g3
I0
sg4
I0
sg5
I0
sg6
I0
sg7
I0
sg8
I0
ssI503
(dp799
g3
I0
sg4
I0
sg5
I0
sg6
I0
sg7
I0
sg8
I0
sssI14
(dp800
I1801
(dp801
g3
I0
sg4
I0
sg5
I0
sg6
I0
sg7
I0
sg8
I0
ssI1802
(dp802
g3
I0
sg4
I0
sg5
I0
sg6
I0
sg7
I0
sg8
I0
ssI1803
(dp803
g3
I0
sg4
I0
sg5
I0
sg6
I0
sg7
I0
sg8
I0
ssI1301
(dp804
g3
I0
sg4
I0
sg5
I0
sg6
I0
sg7
I0
sg8
I0
ssI1302
(dp805
g3
I0
sg4
I0
sg5
I0
sg6
I0
sg7
I0
sg8
I0
ssI1303
(dp806
g3
I0
sg4
I0
sg5
I0
sg6
I0
sg7
I0
sg8
I0
ssI801
(dp807
g3
I0
sg4
I0
sg5
I0
sg6
I0
sg7
I0
sg8
I0
ssI802
(dp808
g3
I0
sg4
I0
sg5
I0
sg6
I0
sg7
I0
sg8
I0
ssI803
(dp809
g3
I0
sg4
I0
sg5
I0
sg6
I0
sg7
I0
sg8
I0
ssI301
(dp810
g3
I0
sg4
I0
sg5
I0
sg6
I0
sg7
I0
sg8
I0
ssI302
(dp811
g3
I0
sg4
I0
sg5
I0
sg6
I0
sg7
I0
sg8
I0
ssI303
(dp812
g3
I0
sg4
I0
sg5
I0
sg6
I0
sg7
I0
sg8
I0
ssI1601
(dp813
g3
I0
sg4
I0
sg5
I0
sg6
I0
sg7
I0
sg8
I0
ssI1602
(dp814
g3
I0
sg4
I0
sg5
I0
sg6
I0
sg7
I0
sg8
I0
ssI1603
(dp815
g3
I0
sg4
I0
sg5
I0
sg6
I0
sg7
I0
sg8
I0
ssI1101
(dp816
g3
I0
sg4
I0
sg5
I0
sg6
I0
sg7
I0
sg8
I0
ssI1102
(dp817
g3
I0
sg4
I0
sg5
I0
sg6
I0
sg7
I0
sg8
I0
ssI1103
(dp818
g3
I0
sg4
I0
sg5
I0
sg6
I0
sg7
I0
sg8
I0
ssI601
(dp819
g3
I0
sg4
I0
sg5
I0
sg6
I0
sg7
I0
sg8
I0
ssI602
(dp820
g3
I0
sg4
I0
sg5
I0
sg6
I0
sg7
I0
sg8
I0
ssI603
(dp821
g3
I0
sg4
I0
sg5
I0
sg6
I0
sg7
I0
sg8
I0
ssI101
(dp822
g3
I0
sg4
I0
sg5
I0
sg6
I0
sg7
I0
sg8
I0
ssI102
(dp823
g3
I0
sg4
I0
sg5
I0
sg6
I0
sg7
I0
sg8
I0
ssI103
(dp824
g3
I0
sg4
I0
sg5
I0
sg6
I0
sg7
I0
sg8
I0
ssI1901
(dp825
g3
I0
sg4
I0
sg5
I0
sg6
I0
sg7
I0
sg8
I0
ssI1902
(dp826
g3
I0
sg4
I0
sg5
I0
sg6
I0
sg7
I0
sg8
I0
ssI1903
(dp827
g3
I0
sg4
I0
sg5
I0
sg6
I0
sg7
I0
sg8
I0
ssI1401
(dp828
g3
I0
sg4
I0
sg5
I0
sg6
I0
sg7
I0
sg8
I0
ssI1402
(dp829
g3
I0
sg4
I0
sg5
I0
sg6
I0
sg7
I0
sg8
I0
ssI1403
(dp830
g3
I0
sg4
I0
sg5
I0
sg6
I0
sg7
I0
sg8
I0
ssI901
(dp831
g3
I0
sg4
I0
sg5
I0
sg6
I0
sg7
I0
sg8
I0
ssI902
(dp832
g3
I0
sg4
I0
sg5
I0
sg6
I0
sg7
I0
sg8
I0
ssI903
(dp833
g3
I0
sg4
I0
sg5
I0
sg6
I0
sg7
I0
sg8
I0
ssI401
(dp834
g3
I0
sg4
I0
sg5
I0
sg6
I0
sg7
I0
sg8
I0
ssI402
(dp835
g3
I0
sg4
I0
sg5
I0
sg6
I0
sg7
I0
sg8
I0
ssI403
(dp836
g3
I0
sg4
I0
sg5
I0
sg6
I0
sg7
I0
sg8
I0
ssI1701
(dp837
g3
I0
sg4
I0
sg5
I0
sg6
I0
sg7
I0
sg8
I0
ssI1702
(dp838
g3
I0
sg4
I0
sg5
I0
sg6
I0
sg7
I0
sg8
I0
ssI1703
(dp839
g3
I0
sg4
I0
sg5
I0
sg6
I0
sg7
I0
sg8
I0
ssI1201
(dp840
g3
I0
sg4
I0
sg5
I0
sg6
I0
sg7
I0
sg8
I0
ssI1202
(dp841
g3
I0
sg4
I0
sg5
I0
sg6
I0
sg7
I0
sg8
I0
ssI1203
(dp842
g3
I0
sg4
I0
sg5
I0
sg6
I0
sg7
I0
sg8
I0
ssI701
(dp843
g3
I0
sg4
I0
sg5
I0
sg6
I0
sg7
I0
sg8
I0
ssI702
(dp844
g3
I0
sg4
I0
sg5
I0
sg6
I0
sg7
I0
sg8
I0
ssI703
(dp845
g3
I0
sg4
I0
sg5
I0
sg6
I0
sg7
I0
sg8
I0
ssI201
(dp846
g3
I0
sg4
I0
sg5
I0
sg6
I0
sg7
I0
sg8
I0
ssI202
(dp847
g3
I0
sg4
I0
sg5
I0
sg6
I0
sg7
I0
sg8
I0
ssI203
(dp848
g3
I0
sg4
I0
sg5
I0
sg6
I0
sg7
I0
sg8
I0
ssI2001
(dp849
g3
I0
sg4
I0
sg5
I0
sg6
I0
sg7
I0
sg8
I0
ssI2002
(dp850
g3
I0
sg4
I0
sg5
I0
sg6
I0
sg7
I0
sg8
I0
ssI2003
(dp851
g3
I0
sg4
I0
sg5
I0
sg6
I0
sg7
I0
sg8
I0
ssI1501
(dp852
g3
I0
sg4
I0
sg5
I0
sg6
I0
sg7
I0
sg8
I0
ssI1502
(dp853
g3
I0
sg4
I0
sg5
I0
sg6
I0
sg7
I0
sg8
I0
ssI1503
(dp854
g3
I0
sg4
I0
sg5
I0
sg6
I0
sg7
I0
sg8
I0
ssI1001
(dp855
g3
I0
sg4
I0
sg5
I0
sg6
I0
sg7
I0
sg8
I0
ssI1002
(dp856
g3
I0
sg4
I0
sg5
I0
sg6
I0
sg7
I0
sg8
I0
ssI1003
(dp857
g3
I0
sg4
I0
sg5
I0
sg6
I0
sg7
I0
sg8
I0
ssI501
(dp858
g3
I0
sg4
I0
sg5
I0
sg6
I0
sg7
I0
sg8
I0
ssI502
(dp859
g3
I0
sg4
I0
sg5
I0
sg6
I0
sg7
I0
sg8
I0
ssI503
(dp860
g3
I0
sg4
I0
sg5
I0
sg6
I0
sg7
I0
sg8
I0
sssI15
(dp861
I1801
(dp862
g3
I0
sg4
I0
sg5
I0
sg6
I0
sg7
I0
sg8
I0
ssI1802
(dp863
g3
I0
sg4
I0
sg5
I0
sg6
I0
sg7
I0
sg8
I0
ssI1803
(dp864
g3
I0
sg4
I0
sg5
I0
sg6
I0
sg7
I0
sg8
I0
ssI1301
(dp865
g3
I0
sg4
I0
sg5
I0
sg6
I0
sg7
I0
sg8
I0
ssI1302
(dp866
g3
I0
sg4
I0
sg5
I0
sg6
I0
sg7
I0
sg8
I0
ssI1303
(dp867
g3
I0
sg4
I0
sg5
I0
sg6
I0
sg7
I0
sg8
I0
ssI801
(dp868
g3
I0
sg4
I0
sg5
I0
sg6
I0
sg7
I0
sg8
I0
ssI802
(dp869
g3
I0
sg4
I0
sg5
I0
sg6
I0
sg7
I0
sg8
I0
ssI803
(dp870
g3
I0
sg4
I0
sg5
I0
sg6
I0
sg7
I0
sg8
I0
ssI301
(dp871
g3
I0
sg4
I0
sg5
I0
sg6
I0
sg7
I0
sg8
I0
ssI302
(dp872
g3
I0
sg4
I0
sg5
I0
sg6
I0
sg7
I0
sg8
I0
ssI303
(dp873
g3
I0
sg4
I0
sg5
I0
sg6
I0
sg7
I0
sg8
I0
ssI1601
(dp874
g3
I0
sg4
I0
sg5
I0
sg6
I0
sg7
I0
sg8
I0
ssI1602
(dp875
g3
I0
sg4
I0
sg5
I0
sg6
I0
sg7
I0
sg8
I0
ssI1603
(dp876
g3
I0
sg4
I0
sg5
I0
sg6
I0
sg7
I0
sg8
I0
ssI1101
(dp877
g3
I0
sg4
I0
sg5
I0
sg6
I0
sg7
I0
sg8
I0
ssI1102
(dp878
g3
I0
sg4
I0
sg5
I0
sg6
I0
sg7
I0
sg8
I0
ssI1103
(dp879
g3
I0
sg4
I0
sg5
I0
sg6
I0
sg7
I0
sg8
I0
ssI601
(dp880
g3
I0
sg4
I0
sg5
I0
sg6
I0
sg7
I0
sg8
I0
ssI602
(dp881
g3
I0
sg4
I0
sg5
I0
sg6
I0
sg7
I0
sg8
I0
ssI603
(dp882
g3
I0
sg4
I0
sg5
I0
sg6
I0
sg7
I0
sg8
I0
ssI101
(dp883
g3
I0
sg4
I0
sg5
I0
sg6
I0
sg7
I0
sg8
I0
ssI102
(dp884
g3
I0
sg4
I0
sg5
I0
sg6
I0
sg7
I0
sg8
I0
ssI103
(dp885
g3
I0
sg4
I0
sg5
I0
sg6
I0
sg7
I0
sg8
I0
ssI1901
(dp886
g3
I0
sg4
I0
sg5
I0
sg6
I0
sg7
I0
sg8
I0
ssI1902
(dp887
g3
I0
sg4
I0
sg5
I0
sg6
I0
sg7
I0
sg8
I0
ssI1903
(dp888
g3
I0
sg4
I0
sg5
I0
sg6
I0
sg7
I0
sg8
I0
ssI1401
(dp889
g3
I0
sg4
I0
sg5
I0
sg6
I0
sg7
I0
sg8
I0
ssI1402
(dp890
g3
I0
sg4
I0
sg5
I0
sg6
I0
sg7
I0
sg8
I0
ssI1403
(dp891
g3
I0
sg4
I0
sg5
I0
sg6
I0
sg7
I0
sg8
I0
ssI901
(dp892
g3
I0
sg4
I0
sg5
I0
sg6
I0
sg7
I0
sg8
I0
ssI902
(dp893
g3
I0
sg4
I0
sg5
I0
sg6
I0
sg7
I0
sg8
I0
ssI903
(dp894
g3
I0
sg4
I0
sg5
I0
sg6
I0
sg7
I0
sg8
I0
ssI401
(dp895
g3
I0
sg4
I0
sg5
I0
sg6
I0
sg7
I0
sg8
I0
ssI402
(dp896
g3
I0
sg4
I0
sg5
I0
sg6
I0
sg7
I0
sg8
I0
ssI403
(dp897
g3
I0
sg4
I0
sg5
I0
sg6
I0
sg7
I0
sg8
I0
ssI1701
(dp898
g3
I0
sg4
I0
sg5
I0
sg6
I0
sg7
I0
sg8
I0
ssI1702
(dp899
g3
I0
sg4
I0
sg5
I0
sg6
I0
sg7
I0
sg8
I0
ssI1703
(dp900
g3
I0
sg4
I0
sg5
I0
sg6
I0
sg7
I0
sg8
I0
ssI1201
(dp901
g3
I0
sg4
I0
sg5
I0
sg6
I0
sg7
I0
sg8
I0
ssI1202
(dp902
g3
I0
sg4
I0
sg5
I0
sg6
I0
sg7
I0
sg8
I0
ssI1203
(dp903
g3
I0
sg4
I0
sg5
I0
sg6
I0
sg7
I0
sg8
I0
ssI701
(dp904
g3
I0
sg4
I0
sg5
I0
sg6
I0
sg7
I0
sg8
I0
ssI702
(dp905
g3
I0
sg4
I0
sg5
I0
sg6
I0
sg7
I0
sg8
I0
ssI703
(dp906
g3
I0
sg4
I0
sg5
I0
sg6
I0
sg7
I0
sg8
I0
ssI201
(dp907
g3
I0
sg4
I0
sg5
I0
sg6
I0
sg7
I0
sg8
I0
ssI202
(dp908
g3
I0
sg4
I0
sg5
I0
sg6
I0
sg7
I0
sg8
I0
ssI203
(dp909
g3
I0
sg4
I0
sg5
I0
sg6
I0
sg7
I0
sg8
I0
ssI2001
(dp910
g3
I0
sg4
I0
sg5
I0
sg6
I0
sg7
I0
sg8
I0
ssI2002
(dp911
g3
I0
sg4
I0
sg5
I0
sg6
I0
sg7
I0
sg8
I0
ssI2003
(dp912
g3
I0
sg4
I0
sg5
I0
sg6
I0
sg7
I0
sg8
I0
ssI1501
(dp913
g3
I0
sg4
I0
sg5
I0
sg6
I0
sg7
I0
sg8
I0
ssI1502
(dp914
g3
I0
sg4
I0
sg5
I0
sg6
I0
sg7
I0
sg8
I0
ssI1503
(dp915
g3
I0
sg4
I0
sg5
I0
sg6
I0
sg7
I0
sg8
I0
ssI1001
(dp916
g3
I0
sg4
I0
sg5
I0
sg6
I0
sg7
I0
sg8
I0
ssI1002
(dp917
g3
I0
sg4
I0
sg5
I0
sg6
I0
sg7
I0
sg8
I0
ssI1003
(dp918
g3
I0
sg4
I0
sg5
I0
sg6
I0
sg7
I0
sg8
I0
ssI501
(dp919
g3
I0
sg4
I0
sg5
I0
sg6
I0
sg7
I0
sg8
I0
ssI502
(dp920
g3
I0
sg4
I0
sg5
I0
sg6
I0
sg7
I0
sg8
I0
ssI503
(dp921
g3
I0
sg4
I0
sg5
I0
sg6
I0
sg7
I0
sg8
I0
sssI16
(dp922
I1801
(dp923
g3
I0
sg4
I0
sg5
I0
sg6
I0
sg7
I0
sg8
I0
ssI1802
(dp924
g3
I0
sg4
I0
sg5
I0
sg6
I0
sg7
I0
sg8
I0
ssI1803
(dp925
g3
I0
sg4
I0
sg5
I0
sg6
I0
sg7
I0
sg8
I0
ssI1301
(dp926
g3
I0
sg4
I0
sg5
I0
sg6
I0
sg7
I0
sg8
I0
ssI1302
(dp927
g3
I0
sg4
I0
sg5
I0
sg6
I0
sg7
I0
sg8
I0
ssI1303
(dp928
g3
I0
sg4
I0
sg5
I0
sg6
I0
sg7
I0
sg8
I0
ssI801
(dp929
g3
I0
sg4
I0
sg5
I0
sg6
I0
sg7
I0
sg8
I0
ssI802
(dp930
g3
I0
sg4
I0
sg5
I0
sg6
I0
sg7
I0
sg8
I0
ssI803
(dp931
g3
I0
sg4
I0
sg5
I0
sg6
I0
sg7
I0
sg8
I0
ssI301
(dp932
g3
I0
sg4
I0
sg5
I0
sg6
I0
sg7
I0
sg8
I0
ssI302
(dp933
g3
I0
sg4
I0
sg5
I0
sg6
I0
sg7
I0
sg8
I0
ssI303
(dp934
g3
I0
sg4
I0
sg5
I0
sg6
I0
sg7
I0
sg8
I0
ssI1601
(dp935
g3
I0
sg4
I0
sg5
I0
sg6
I0
sg7
I0
sg8
I0
ssI1602
(dp936
g3
I0
sg4
I0
sg5
I0
sg6
I0
sg7
I0
sg8
I0
ssI1603
(dp937
g3
I0
sg4
I0
sg5
I0
sg6
I0
sg7
I0
sg8
I0
ssI1101
(dp938
g3
I0
sg4
I0
sg5
I0
sg6
I0
sg7
I0
sg8
I0
ssI1102
(dp939
g3
I0
sg4
I0
sg5
I0
sg6
I0
sg7
I0
sg8
I0
ssI1103
(dp940
g3
I0
sg4
I0
sg5
I0
sg6
I0
sg7
I0
sg8
I0
ssI601
(dp941
g3
I0
sg4
I0
sg5
I0
sg6
I0
sg7
I0
sg8
I0
ssI602
(dp942
g3
I0
sg4
I0
sg5
I0
sg6
I0
sg7
I0
sg8
I0
ssI603
(dp943
g3
I0
sg4
I0
sg5
I0
sg6
I0
sg7
I0
sg8
I0
ssI101
(dp944
g3
I0
sg4
I0
sg5
I0
sg6
I0
sg7
I0
sg8
I0
ssI102
(dp945
g3
I0
sg4
I0
sg5
I0
sg6
I0
sg7
I0
sg8
I0
ssI103
(dp946
g3
I0
sg4
I0
sg5
I0
sg6
I0
sg7
I0
sg8
I0
ssI1901
(dp947
g3
I0
sg4
I0
sg5
I0
sg6
I0
sg7
I0
sg8
I0
ssI1902
(dp948
g3
I0
sg4
I0
sg5
I0
sg6
I0
sg7
I0
sg8
I0
ssI1903
(dp949
g3
I0
sg4
I0
sg5
I0
sg6
I0
sg7
I0
sg8
I0
ssI1401
(dp950
g3
I0
sg4
I0
sg5
I0
sg6
I0
sg7
I0
sg8
I0
ssI1402
(dp951
g3
I0
sg4
I0
sg5
I0
sg6
I0
sg7
I0
sg8
I0
ssI1403
(dp952
g3
I0
sg4
I0
sg5
I0
sg6
I0
sg7
I0
sg8
I0
ssI901
(dp953
g3
I0
sg4
I0
sg5
I0
sg6
I0
sg7
I0
sg8
I0
ssI902
(dp954
g3
I0
sg4
I0
sg5
I0
sg6
I0
sg7
I0
sg8
I0
ssI903
(dp955
g3
I0
sg4
I0
sg5
I0
sg6
I0
sg7
I0
sg8
I0
ssI401
(dp956
g3
I0
sg4
I0
sg5
I0
sg6
I0
sg7
I0
sg8
I0
ssI402
(dp957
g3
I0
sg4
I0
sg5
I0
sg6
I0
sg7
I0
sg8
I0
ssI403
(dp958
g3
I0
sg4
I0
sg5
I0
sg6
I0
sg7
I0
sg8
I0
ssI1701
(dp959
g3
I0
sg4
I0
sg5
I0
sg6
I0
sg7
I0
sg8
I0
ssI1702
(dp960
g3
I0
sg4
I0
sg5
I0
sg6
I0
sg7
I0
sg8
I0
ssI1703
(dp961
g3
I0
sg4
I0
sg5
I0
sg6
I0
sg7
I0
sg8
I0
ssI1201
(dp962
g3
I0
sg4
I0
sg5
I0
sg6
I0
sg7
I0
sg8
I0
ssI1202
(dp963
g3
I0
sg4
I0
sg5
I0
sg6
I0
sg7
I0
sg8
I0
ssI1203
(dp964
g3
I0
sg4
I0
sg5
I0
sg6
I0
sg7
I0
sg8
I0
ssI701
(dp965
g3
I0
sg4
I0
sg5
I0
sg6
I0
sg7
I0
sg8
I0
ssI702
(dp966
g3
I0
sg4
I0
sg5
I0
sg6
I0
sg7
I0
sg8
I0
ssI703
(dp967
g3
I0
sg4
I0
sg5
I0
sg6
I0
sg7
I0
sg8
I0
ssI201
(dp968
g3
I0
sg4
I0
sg5
I0
sg6
I0
sg7
I0
sg8
I0
ssI202
(dp969
g3
I0
sg4
I0
sg5
I0
sg6
I0
sg7
I0
sg8
I0
ssI203
(dp970
g3
I0
sg4
I0
sg5
I0
sg6
I0
sg7
I0
sg8
I0
ssI2001
(dp971
g3
I0
sg4
I0
sg5
I0
sg6
I0
sg7
I0
sg8
I0
ssI2002
(dp972
g3
I0
sg4
I0
sg5
I0
sg6
I0
sg7
I0
sg8
I0
ssI2003
(dp973
g3
I0
sg4
I0
sg5
I0
sg6
I0
sg7
I0
sg8
I0
ssI1501
(dp974
g3
I0
sg4
I0
sg5
I0
sg6
I0
sg7
I0
sg8
I0
ssI1502
(dp975
g3
I0
sg4
I0
sg5
I0
sg6
I0
sg7
I0
sg8
I0
ssI1503
(dp976
g3
I0
sg4
I0
sg5
I0
sg6
I0
sg7
I0
sg8
I0
ssI1001
(dp977
g3
I0
sg4
I0
sg5
I0
sg6
I0
sg7
I0
sg8
I0
ssI1002
(dp978
g3
I0
sg4
I0
sg5
I0
sg6
I0
sg7
I0
sg8
I0
ssI1003
(dp979
g3
I0
sg4
I0
sg5
I0
sg6
I0
sg7
I0
sg8
I0
ssI501
(dp980
g3
I0
sg4
I0
sg5
I0
sg6
I0
sg7
I0
sg8
I0
ssI502
(dp981
g3
I0
sg4
I0
sg5
I0
sg6
I0
sg7
I0
sg8
I0
ssI503
(dp982
g3
I0
sg4
I0
sg5
I0
sg6
I0
sg7
I0
sg8
I0
sssI17
(dp983
I1801
(dp984
g3
I0
sg4
I0
sg5
I0
sg6
I0
sg7
I0
sg8
I0
ssI1802
(dp985
g3
I0
sg4
I0
sg5
I0
sg6
I0
sg7
I0
sg8
I0
ssI1803
(dp986
g3
I0
sg4
I0
sg5
I0
sg6
I0
sg7
I0
sg8
I0
ssI1301
(dp987
g3
I0
sg4
I0
sg5
I0
sg6
I0
sg7
I0
sg8
I0
ssI1302
(dp988
g3
I0
sg4
I0
sg5
I0
sg6
I0
sg7
I0
sg8
I0
ssI1303
(dp989
g3
I0
sg4
I0
sg5
I0
sg6
I0
sg7
I0
sg8
I0
ssI801
(dp990
g3
I0
sg4
I0
sg5
I0
sg6
I0
sg7
I0
sg8
I0
ssI802
(dp991
g3
I0
sg4
I0
sg5
I0
sg6
I0
sg7
I0
sg8
I0
ssI803
(dp992
g3
I0
sg4
I0
sg5
I0
sg6
I0
sg7
I0
sg8
I0
ssI301
(dp993
g3
I0
sg4
I0
sg5
I0
sg6
I0
sg7
I0
sg8
I0
ssI302
(dp994
g3
I0
sg4
I0
sg5
I0
sg6
I0
sg7
I0
sg8
I0
ssI303
(dp995
g3
I0
sg4
I0
sg5
I0
sg6
I0
sg7
I0
sg8
I0
ssI1601
(dp996
g3
I0
sg4
I0
sg5
I0
sg6
I0
sg7
I0
sg8
I0
ssI1602
(dp997
g3
I0
sg4
I0
sg5
I0
sg6
I0
sg7
I0
sg8
I0
ssI1603
(dp998
g3
I0
sg4
I0
sg5
I0
sg6
I0
sg7
I0
sg8
I0
ssI1101
(dp999
g3
I0
sg4
I0
sg5
I0
sg6
I0
sg7
I0
sg8
I0
ssI1102
(dp1000
g3
I0
sg4
I0
sg5
I0
sg6
I0
sg7
I0
sg8
I0
ssI1103
(dp1001
g3
I0
sg4
I0
sg5
I0
sg6
I0
sg7
I0
sg8
I0
ssI601
(dp1002
g3
I0
sg4
I0
sg5
I0
sg6
I0
sg7
I0
sg8
I0
ssI602
(dp1003
g3
I0
sg4
I0
sg5
I0
sg6
I0
sg7
I0
sg8
I0
ssI603
(dp1004
g3
I0
sg4
I0
sg5
I0
sg6
I0
sg7
I0
sg8
I0
ssI101
(dp1005
g3
I0
sg4
I0
sg5
I0
sg6
I0
sg7
I0
sg8
I0
ssI102
(dp1006
g3
I0
sg4
I0
sg5
I0
sg6
I0
sg7
I0
sg8
I0
ssI103
(dp1007
g3
I0
sg4
I0
sg5
I0
sg6
I0
sg7
I0
sg8
I0
ssI1901
(dp1008
g3
I0
sg4
I0
sg5
I0
sg6
I0
sg7
I0
sg8
I0
ssI1902
(dp1009
g3
I0
sg4
I0
sg5
I0
sg6
I0
sg7
I0
sg8
I0
ssI1903
(dp1010
g3
I0
sg4
I0
sg5
I0
sg6
I0
sg7
I0
sg8
I0
ssI1401
(dp1011
g3
I0
sg4
I0
sg5
I0
sg6
I0
sg7
I0
sg8
I0
ssI1402
(dp1012
g3
I0
sg4
I0
sg5
I0
sg6
I0
sg7
I0
sg8
I0
ssI1403
(dp1013
g3
I0
sg4
I0
sg5
I0
sg6
I0
sg7
I0
sg8
I0
ssI901
(dp1014
g3
I0
sg4
I0
sg5
I0
sg6
I0
sg7
I0
sg8
I0
ssI902
(dp1015
g3
I0
sg4
I0
sg5
I0
sg6
I0
sg7
I0
sg8
I0
ssI903
(dp1016
g3
I0
sg4
I0
sg5
I0
sg6
I0
sg7
I0
sg8
I0
ssI401
(dp1017
g3
I0
sg4
I0
sg5
I0
sg6
I0
sg7
I0
sg8
I0
ssI402
(dp1018
g3
I0
sg4
I0
sg5
I0
sg6
I0
sg7
I0
sg8
I0
ssI403
(dp1019
g3
I0
sg4
I0
sg5
I0
sg6
I0
sg7
I0
sg8
I0
ssI1701
(dp1020
g3
I0
sg4
I0
sg5
I0
sg6
I0
sg7
I0
sg8
I0
ssI1702
(dp1021
g3
I0
sg4
I0
sg5
I0
sg6
I0
sg7
I0
sg8
I0
ssI1703
(dp1022
g3
I0
sg4
I0
sg5
I0
sg6
I0
sg7
I0
sg8
I0
ssI1201
(dp1023
g3
I0
sg4
I0
sg5
I0
sg6
I0
sg7
I0
sg8
I0
ssI1202
(dp1024
g3
I0
sg4
I0
sg5
I0
sg6
I0
sg7
I0
sg8
I0
ssI1203
(dp1025
g3
I0
sg4
I0
sg5
I0
sg6
I0
sg7
I0
sg8
I0
ssI701
(dp1026
g3
I0
sg4
I0
sg5
I0
sg6
I0
sg7
I0
sg8
I0
ssI702
(dp1027
g3
I0
sg4
I0
sg5
I0
sg6
I0
sg7
I0
sg8
I0
ssI703
(dp1028
g3
I0
sg4
I0
sg5
I0
sg6
I0
sg7
I0
sg8
I0
ssI201
(dp1029
g3
I0
sg4
I0
sg5
I0
sg6
I0
sg7
I0
sg8
I0
ssI202
(dp1030
g3
I0
sg4
I0
sg5
I0
sg6
I0
sg7
I0
sg8
I0
ssI203
(dp1031
g3
I0
sg4
I0
sg5
I0
sg6
I0
sg7
I0
sg8
I0
ssI2001
(dp1032
g3
I0
sg4
I0
sg5
I0
sg6
I0
sg7
I0
sg8
I0
ssI2002
(dp1033
g3
I0
sg4
I0
sg5
I0
sg6
I0
sg7
I0
sg8
I0
ssI2003
(dp1034
g3
I0
sg4
I0
sg5
I0
sg6
I0
sg7
I0
sg8
I0
ssI1501
(dp1035
g3
I0
sg4
I0
sg5
I0
sg6
I0
sg7
I0
sg8
I0
ssI1502
(dp1036
g3
I0
sg4
I0
sg5
I0
sg6
I0
sg7
I0
sg8
I0
ssI1503
(dp1037
g3
I0
sg4
I0
sg5
I0
sg6
I0
sg7
I0
sg8
I0
ssI1001
(dp1038
g3
I0
sg4
I0
sg5
I0
sg6
I0
sg7
I0
sg8
I0
ssI1002
(dp1039
g3
I0
sg4
I0
sg5
I0
sg6
I0
sg7
I0
sg8
I0
ssI1003
(dp1040
g3
I0
sg4
I0
sg5
I0
sg6
I0
sg7
I0
sg8
I0
ssI501
(dp1041
g3
I0
sg4
I0
sg5
I0
sg6
I0
sg7
I0
sg8
I0
ssI502
(dp1042
g3
I0
sg4
I0
sg5
I0
sg6
I0
sg7
I0
sg8
I0
ssI503
(dp1043
g3
I0
sg4
I0
sg5
I0
sg6
I0
sg7
I0
sg8
I0
sssI18
(dp1044
I1801
(dp1045
g3
I0
sg4
I0
sg5
I0
sg6
I0
sg7
I0
sg8
I0
ssI1802
(dp1046
g3
I0
sg4
I0
sg5
I0
sg6
I0
sg7
I0
sg8
I0
ssI1803
(dp1047
g3
I0
sg4
I0
sg5
I0
sg6
I0
sg7
I0
sg8
I0
ssI1301
(dp1048
g3
I0
sg4
I0
sg5
I0
sg6
I0
sg7
I0
sg8
I0
ssI1302
(dp1049
g3
I0
sg4
I0
sg5
I0
sg6
I0
sg7
I0
sg8
I0
ssI1303
(dp1050
g3
I0
sg4
I0
sg5
I0
sg6
I0
sg7
I0
sg8
I0
ssI801
(dp1051
g3
I0
sg4
I0
sg5
I0
sg6
I0
sg7
I0
sg8
I0
ssI802
(dp1052
g3
I0
sg4
I0
sg5
I0
sg6
I0
sg7
I0
sg8
I0
ssI803
(dp1053
g3
I0
sg4
I0
sg5
I0
sg6
I0
sg7
I0
sg8
I0
ssI301
(dp1054
g3
I0
sg4
I0
sg5
I0
sg6
I0
sg7
I0
sg8
I0
ssI302
(dp1055
g3
I0
sg4
I0
sg5
I0
sg6
I0
sg7
I0
sg8
I0
ssI303
(dp1056
g3
I0
sg4
I0
sg5
I0
sg6
I0
sg7
I0
sg8
I0
ssI1601
(dp1057
g3
I0
sg4
I0
sg5
I0
sg6
I0
sg7
I0
sg8
I0
ssI1602
(dp1058
g3
I0
sg4
I0
sg5
I0
sg6
I0
sg7
I0
sg8
I0
ssI1603
(dp1059
g3
I0
sg4
I0
sg5
I0
sg6
I0
sg7
I0
sg8
I0
ssI1101
(dp1060
g3
I0
sg4
I0
sg5
I0
sg6
I0
sg7
I0
sg8
I0
ssI1102
(dp1061
g3
I0
sg4
I0
sg5
I0
sg6
I0
sg7
I0
sg8
I0
ssI1103
(dp1062
g3
I0
sg4
I0
sg5
I0
sg6
I0
sg7
I0
sg8
I0
ssI601
(dp1063
g3
I0
sg4
I0
sg5
I0
sg6
I0
sg7
I0
sg8
I0
ssI602
(dp1064
g3
I0
sg4
I0
sg5
I0
sg6
I0
sg7
I0
sg8
I0
ssI603
(dp1065
g3
I0
sg4
I0
sg5
I0
sg6
I0
sg7
I0
sg8
I0
ssI101
(dp1066
g3
I0
sg4
I0
sg5
I0
sg6
I0
sg7
I0
sg8
I0
ssI102
(dp1067
g3
I0
sg4
I0
sg5
I0
sg6
I0
sg7
I0
sg8
I0
ssI103
(dp1068
g3
I0
sg4
I0
sg5
I0
sg6
I0
sg7
I0
sg8
I0
ssI1901
(dp1069
g3
I0
sg4
I0
sg5
I0
sg6
I0
sg7
I0
sg8
I0
ssI1902
(dp1070
g3
I0
sg4
I0
sg5
I0
sg6
I0
sg7
I0
sg8
I0
ssI1903
(dp1071
g3
I0
sg4
I0
sg5
I0
sg6
I0
sg7
I0
sg8
I0
ssI1401
(dp1072
g3
I0
sg4
I0
sg5
I0
sg6
I0
sg7
I0
sg8
I0
ssI1402
(dp1073
g3
I0
sg4
I0
sg5
I0
sg6
I0
sg7
I0
sg8
I0
ssI1403
(dp1074
g3
I0
sg4
I0
sg5
I0
sg6
I0
sg7
I0
sg8
I0
ssI901
(dp1075
g3
I0
sg4
I0
sg5
I0
sg6
I0
sg7
I0
sg8
I0
ssI902
(dp1076
g3
I0
sg4
I0
sg5
I0
sg6
I0
sg7
I0
sg8
I0
ssI903
(dp1077
g3
I0
sg4
I0
sg5
I0
sg6
I0
sg7
I0
sg8
I0
ssI401
(dp1078
g3
I0
sg4
I0
sg5
I0
sg6
I0
sg7
I0
sg8
I0
ssI402
(dp1079
g3
I0
sg4
I0
sg5
I0
sg6
I0
sg7
I0
sg8
I0
ssI403
(dp1080
g3
I0
sg4
I0
sg5
I0
sg6
I0
sg7
I0
sg8
I0
ssI1701
(dp1081
g3
I0
sg4
I0
sg5
I0
sg6
I0
sg7
I0
sg8
I0
ssI1702
(dp1082
g3
I0
sg4
I0
sg5
I0
sg6
I0
sg7
I0
sg8
I0
ssI1703
(dp1083
g3
I0
sg4
I0
sg5
I0
sg6
I0
sg7
I0
sg8
I0
ssI1201
(dp1084
g3
I0
sg4
I0
sg5
I0
sg6
I0
sg7
I0
sg8
I0
ssI1202
(dp1085
g3
I0
sg4
I0
sg5
I0
sg6
I0
sg7
I0
sg8
I0
ssI1203
(dp1086
g3
I0
sg4
I0
sg5
I0
sg6
I0
sg7
I0
sg8
I0
ssI701
(dp1087
g3
I0
sg4
I0
sg5
I0
sg6
I0
sg7
I0
sg8
I0
ssI702
(dp1088
g3
I0
sg4
I0
sg5
I0
sg6
I0
sg7
I0
sg8
I0
ssI703
(dp1089
g3
I0
sg4
I0
sg5
I0
sg6
I0
sg7
I0
sg8
I0
ssI201
(dp1090
g3
I0
sg4
I0
sg5
I0
sg6
I0
sg7
I0
sg8
I0
ssI202
(dp1091
g3
I0
sg4
I0
sg5
I0
sg6
I0
sg7
I0
sg8
I0
ssI203
(dp1092
g3
I0
sg4
I0
sg5
I0
sg6
I0
sg7
I0
sg8
I0
ssI2001
(dp1093
g3
I0
sg4
I0
sg5
I0
sg6
I0
sg7
I0
sg8
I0
ssI2002
(dp1094
g3
I0
sg4
I0
sg5
I0
sg6
I0
sg7
I0
sg8
I0
ssI2003
(dp1095
g3
I0
sg4
I0
sg5
I0
sg6
I0
sg7
I0
sg8
I0
ssI1501
(dp1096
g3
I0
sg4
I0
sg5
I0
sg6
I0
sg7
I0
sg8
I0
ssI1502
(dp1097
g3
I0
sg4
I0
sg5
I0
sg6
I0
sg7
I0
sg8
I0
ssI1503
(dp1098
g3
I0
sg4
I0
sg5
I0
sg6
I0
sg7
I0
sg8
I0
ssI1001
(dp1099
g3
I0
sg4
I0
sg5
I0
sg6
I0
sg7
I0
sg8
I0
ssI1002
(dp1100
g3
I0
sg4
I0
sg5
I0
sg6
I0
sg7
I0
sg8
I0
ssI1003
(dp1101
g3
I0
sg4
I0
sg5
I0
sg6
I0
sg7
I0
sg8
I0
ssI501
(dp1102
g3
I0
sg4
I0
sg5
I0
sg6
I0
sg7
I0
sg8
I0
ssI502
(dp1103
g3
I0
sg4
I0
sg5
I0
sg6
I0
sg7
I0
sg8
I0
ssI503
(dp1104
g3
I0
sg4
I0
sg5
I0
sg6
I0
sg7
I0
sg8
I0
sssI19
(dp1105
I1801
(dp1106
g3
I0
sg4
I0
sg5
I0
sg6
I0
sg7
I0
sg8
I0
ssI1802
(dp1107
g3
I0
sg4
I0
sg5
I0
sg6
I0
sg7
I0
sg8
I0
ssI1803
(dp1108
g3
I0
sg4
I0
sg5
I0
sg6
I0
sg7
I0
sg8
I0
ssI1301
(dp1109
g3
I0
sg4
I0
sg5
I0
sg6
I0
sg7
I0
sg8
I0
ssI1302
(dp1110
g3
I0
sg4
I0
sg5
I0
sg6
I0
sg7
I0
sg8
I0
ssI1303
(dp1111
g3
I0
sg4
I0
sg5
I0
sg6
I0
sg7
I0
sg8
I0
ssI801
(dp1112
g3
I0
sg4
I0
sg5
I0
sg6
I0
sg7
I0
sg8
I0
ssI802
(dp1113
g3
I0
sg4
I0
sg5
I0
sg6
I0
sg7
I0
sg8
I0
ssI803
(dp1114
g3
I0
sg4
I0
sg5
I0
sg6
I0
sg7
I0
sg8
I0
ssI301
(dp1115
g3
I0
sg4
I0
sg5
I0
sg6
I0
sg7
I0
sg8
I0
ssI302
(dp1116
g3
I0
sg4
I0
sg5
I0
sg6
I0
sg7
I0
sg8
I0
ssI303
(dp1117
g3
I0
sg4
I0
sg5
I0
sg6
I0
sg7
I0
sg8
I0
ssI1601
(dp1118
g3
I0
sg4
I0
sg5
I0
sg6
I0
sg7
I0
sg8
I0
ssI1602
(dp1119
g3
I0
sg4
I0
sg5
I0
sg6
I0
sg7
I0
sg8
I0
ssI1603
(dp1120
g3
I0
sg4
I0
sg5
I0
sg6
I0
sg7
I0
sg8
I0
ssI1101
(dp1121
g3
I0
sg4
I0
sg5
I0
sg6
I0
sg7
I0
sg8
I0
ssI1102
(dp1122
g3
I0
sg4
I0
sg5
I0
sg6
I0
sg7
I0
sg8
I0
ssI1103
(dp1123
g3
I0
sg4
I0
sg5
I0
sg6
I0
sg7
I0
sg8
I0
ssI601
(dp1124
g3
I0
sg4
I0
sg5
I0
sg6
I0
sg7
I0
sg8
I0
ssI602
(dp1125
g3
I0
sg4
I0
sg5
I0
sg6
I0
sg7
I0
sg8
I0
ssI603
(dp1126
g3
I0
sg4
I0
sg5
I0
sg6
I0
sg7
I0
sg8
I0
ssI101
(dp1127
g3
I0
sg4
I0
sg5
I0
sg6
I0
sg7
I0
sg8
I0
ssI102
(dp1128
g3
I0
sg4
I0
sg5
I0
sg6
I0
sg7
I0
sg8
I0
ssI103
(dp1129
g3
I0
sg4
I0
sg5
I0
sg6
I0
sg7
I0
sg8
I0
ssI1901
(dp1130
g3
I0
sg4
I0
sg5
I0
sg6
I0
sg7
I0
sg8
I0
ssI1902
(dp1131
g3
I0
sg4
I0
sg5
I0
sg6
I0
sg7
I0
sg8
I0
ssI1903
(dp1132
g3
I0
sg4
I0
sg5
I0
sg6
I0
sg7
I0
sg8
I0
ssI1401
(dp1133
g3
I0
sg4
I0
sg5
I0
sg6
I0
sg7
I0
sg8
I0
ssI1402
(dp1134
g3
I0
sg4
I0
sg5
I0
sg6
I0
sg7
I0
sg8
I0
ssI1403
(dp1135
g3
I0
sg4
I0
sg5
I0
sg6
I0
sg7
I0
sg8
I0
ssI901
(dp1136
g3
I0
sg4
I0
sg5
I0
sg6
I0
sg7
I0
sg8
I0
ssI902
(dp1137
g3
I0
sg4
I0
sg5
I0
sg6
I0
sg7
I0
sg8
I0
ssI903
(dp1138
g3
I0
sg4
I0
sg5
I0
sg6
I0
sg7
I0
sg8
I0
ssI401
(dp1139
g3
I0
sg4
I0
sg5
I0
sg6
I0
sg7
I0
sg8
I0
ssI402
(dp1140
g3
I0
sg4
I0
sg5
I0
sg6
I0
sg7
I0
sg8
I0
ssI403
(dp1141
g3
I0
sg4
I0
sg5
I0
sg6
I0
sg7
I0
sg8
I0
ssI1701
(dp1142
g3
I0
sg4
I0
sg5
I0
sg6
I0
sg7
I0
sg8
I0
ssI1702
(dp1143
g3
I0
sg4
I0
sg5
I0
sg6
I0
sg7
I0
sg8
I0
ssI1703
(dp1144
g3
I0
sg4
I0
sg5
I0
sg6
I0
sg7
I0
sg8
I0
ssI1201
(dp1145
g3
I0
sg4
I0
sg5
I0
sg6
I0
sg7
I0
sg8
I0
ssI1202
(dp1146
g3
I0
sg4
I0
sg5
I0
sg6
I0
sg7
I0
sg8
I0
ssI1203
(dp1147
g3
I0
sg4
I0
sg5
I0
sg6
I0
sg7
I0
sg8
I0
ssI701
(dp1148
g3
I0
sg4
I0
sg5
I0
sg6
I0
sg7
I0
sg8
I0
ssI702
(dp1149
g3
I0
sg4
I0
sg5
I0
sg6
I0
sg7
I0
sg8
I0
ssI703
(dp1150
g3
I0
sg4
I0
sg5
I0
sg6
I0
sg7
I0
sg8
I0
ssI201
(dp1151
g3
I0
sg4
I0
sg5
I0
sg6
I0
sg7
I0
sg8
I0
ssI202
(dp1152
g3
I0
sg4
I0
sg5
I0
sg6
I0
sg7
I0
sg8
I0
ssI203
(dp1153
g3
I0
sg4
I0
sg5
I0
sg6
I0
sg7
I0
sg8
I0
ssI2001
(dp1154
g3
I0
sg4
I0
sg5
I0
sg6
I0
sg7
I0
sg8
I0
ssI2002
(dp1155
g3
I0
sg4
I0
sg5
I0
sg6
I0
sg7
I0
sg8
I0
ssI2003
(dp1156
g3
I0
sg4
I0
sg5
I0
sg6
I0
sg7
I0
sg8
I0
ssI1501
(dp1157
g3
I0
sg4
I0
sg5
I0
sg6
I0
sg7
I0
sg8
I0
ssI1502
(dp1158
g3
I0
sg4
I0
sg5
I0
sg6
I0
sg7
I0
sg8
I0
ssI1503
(dp1159
g3
I0
sg4
I0
sg5
I0
sg6
I0
sg7
I0
sg8
I0
ssI1001
(dp1160
g3
I0
sg4
I0
sg5
I0
sg6
I0
sg7
I0
sg8
I0
ssI1002
(dp1161
g3
I0
sg4
I0
sg5
I0
sg6
I0
sg7
I0
sg8
I0
ssI1003
(dp1162
g3
I0
sg4
I0
sg5
I0
sg6
I0
sg7
I0
sg8
I0
ssI501
(dp1163
g3
I0
sg4
I0
sg5
I0
sg6
I0
sg7
I0
sg8
I0
ssI502
(dp1164
g3
I0
sg4
I0
sg5
I0
sg6
I0
sg7
I0
sg8
I0
ssI503
(dp1165
g3
I0
sg4
I0
sg5
I0
sg6
I0
sg7
I0
sg8
I0
sssI20
(dp1166
I1801
(dp1167
g3
I0
sg4
I0
sg5
I0
sg6
I0
sg7
I0
sg8
I0
ssI1802
(dp1168
g3
I0
sg4
I0
sg5
I0
sg6
I0
sg7
I0
sg8
I0
ssI1803
(dp1169
g3
I0
sg4
I0
sg5
I0
sg6
I0
sg7
I0
sg8
I0
ssI1301
(dp1170
g3
I0
sg4
I0
sg5
I0
sg6
I0
sg7
I0
sg8
I0
ssI1302
(dp1171
g3
I0
sg4
I0
sg5
I0
sg6
I0
sg7
I0
sg8
I0
ssI1303
(dp1172
g3
I0
sg4
I0
sg5
I0
sg6
I0
sg7
I0
sg8
I0
ssI801
(dp1173
g3
I0
sg4
I0
sg5
I0
sg6
I0
sg7
I0
sg8
I0
ssI802
(dp1174
g3
I0
sg4
I0
sg5
I0
sg6
I0
sg7
I0
sg8
I0
ssI803
(dp1175
g3
I0
sg4
I0
sg5
I0
sg6
I0
sg7
I0
sg8
I0
ssI301
(dp1176
g3
I0
sg4
I0
sg5
I0
sg6
I0
sg7
I0
sg8
I0
ssI302
(dp1177
g3
I0
sg4
I0
sg5
I0
sg6
I0
sg7
I0
sg8
I0
ssI303
(dp1178
g3
I0
sg4
I0
sg5
I0
sg6
I0
sg7
I0
sg8
I0
ssI1601
(dp1179
g3
I0
sg4
I0
sg5
I0
sg6
I0
sg7
I0
sg8
I0
ssI1602
(dp1180
g3
I0
sg4
I0
sg5
I0
sg6
I0
sg7
I0
sg8
I0
ssI1603
(dp1181
g3
I0
sg4
I0
sg5
I0
sg6
I0
sg7
I0
sg8
I0
ssI1101
(dp1182
g3
I0
sg4
I0
sg5
I0
sg6
I0
sg7
I0
sg8
I0
ssI1102
(dp1183
g3
I0
sg4
I0
sg5
I0
sg6
I0
sg7
I0
sg8
I0
ssI1103
(dp1184
g3
I0
sg4
I0
sg5
I0
sg6
I0
sg7
I0
sg8
I0
ssI601
(dp1185
g3
I0
sg4
I0
sg5
I0
sg6
I0
sg7
I0
sg8
I0
ssI602
(dp1186
g3
I0
sg4
I0
sg5
I0
sg6
I0
sg7
I0
sg8
I0
ssI603
(dp1187
g3
I0
sg4
I0
sg5
I0
sg6
I0
sg7
I0
sg8
I0
ssI101
(dp1188
g3
I0
sg4
I0
sg5
I0
sg6
I0
sg7
I0
sg8
I0
ssI102
(dp1189
g3
I0
sg4
I0
sg5
I0
sg6
I0
sg7
I0
sg8
I0
ssI103
(dp1190
g3
I0
sg4
I0
sg5
I0
sg6
I0
sg7
I0
sg8
I0
ssI1901
(dp1191
g3
I0
sg4
I0
sg5
I0
sg6
I0
sg7
I0
sg8
I0
ssI1902
(dp1192
g3
I0
sg4
I0
sg5
I0
sg6
I0
sg7
I0
sg8
I0
ssI1903
(dp1193
g3
I0
sg4
I0
sg5
I0
sg6
I0
sg7
I0
sg8
I0
ssI1401
(dp1194
g3
I0
sg4
I0
sg5
I0
sg6
I0
sg7
I0
sg8
I0
ssI1402
(dp1195
g3
I0
sg4
I0
sg5
I0
sg6
I0
sg7
I0
sg8
I0
ssI1403
(dp1196
g3
I0
sg4
I0
sg5
I0
sg6
I0
sg7
I0
sg8
I0
ssI901
(dp1197
g3
I0
sg4
I0
sg5
I0
sg6
I0
sg7
I0
sg8
I0
ssI902
(dp1198
g3
I0
sg4
I0
sg5
I0
sg6
I0
sg7
I0
sg8
I0
ssI903
(dp1199
g3
I0
sg4
I0
sg5
I0
sg6
I0
sg7
I0
sg8
I0
ssI401
(dp1200
g3
I0
sg4
I0
sg5
I0
sg6
I0
sg7
I0
sg8
I0
ssI402
(dp1201
g3
I0
sg4
I0
sg5
I0
sg6
I0
sg7
I0
sg8
I0
ssI403
(dp1202
g3
I0
sg4
I0
sg5
I0
sg6
I0
sg7
I0
sg8
I0
ssI1701
(dp1203
g3
I0
sg4
I0
sg5
I0
sg6
I0
sg7
I0
sg8
I0
ssI1702
(dp1204
g3
I0
sg4
I0
sg5
I0
sg6
I0
sg7
I0
sg8
I0
ssI1703
(dp1205
g3
I0
sg4
I0
sg5
I0
sg6
I0
sg7
I0
sg8
I0
ssI1201
(dp1206
g3
I0
sg4
I0
sg5
I0
sg6
I0
sg7
I0
sg8
I0
ssI1202
(dp1207
g3
I0
sg4
I0
sg5
I0
sg6
I0
sg7
I0
sg8
I0
ssI1203
(dp1208
g3
I0
sg4
I0
sg5
I0
sg6
I0
sg7
I0
sg8
I0
ssI701
(dp1209
g3
I0
sg4
I0
sg5
I0
sg6
I0
sg7
I0
sg8
I0
ssI702
(dp1210
g3
I0
sg4
I0
sg5
I0
sg6
I0
sg7
I0
sg8
I0
ssI703
(dp1211
g3
I0
sg4
I0
sg5
I0
sg6
I0
sg7
I0
sg8
I0
ssI201
(dp1212
g3
I0
sg4
I0
sg5
I0
sg6
I0
sg7
I0
sg8
I0
ssI202
(dp1213
g3
I0
sg4
I0
sg5
I0
sg6
I0
sg7
I0
sg8
I0
ssI203
(dp1214
g3
I0
sg4
I0
sg5
I0
sg6
I0
sg7
I0
sg8
I0
ssI2001
(dp1215
g3
I0
sg4
I0
sg5
I0
sg6
I0
sg7
I0
sg8
I0
ssI2002
(dp1216
g3
I0
sg4
I0
sg5
I0
sg6
I0
sg7
I0
sg8
I0
ssI2003
(dp1217
g3
I0
sg4
I0
sg5
I0
sg6
I0
sg7
I0
sg8
I0
ssI1501
(dp1218
g3
I0
sg4
I0
sg5
I0
sg6
I0
sg7
I0
sg8
I0
ssI1502
(dp1219
g3
I0
sg4
I0
sg5
I0
sg6
I0
sg7
I0
sg8
I0
ssI1503
(dp1220
g3
I0
sg4
I0
sg5
I0
sg6
I0
sg7
I0
sg8
I0
ssI1001
(dp1221
g3
I0
sg4
I0
sg5
I0
sg6
I0
sg7
I0
sg8
I0
ssI1002
(dp1222
g3
I0
sg4
I0
sg5
I0
sg6
I0
sg7
I0
sg8
I0
ssI1003
(dp1223
g3
I0
sg4
I0
sg5
I0
sg6
I0
sg7
I0
sg8
I0
ssI501
(dp1224
g3
I0
sg4
I0
sg5
I0
sg6
I0
sg7
I0
sg8
I0
ssI502
(dp1225
g3
I0
sg4
I0
sg5
I0
sg6
I0
sg7
I0
sg8
I0
ssI503
(dp1226
g3
I0
sg4
I0
sg5
I0
sg6
I0
sg7
I0
sg8
I0
sssI21
(dp1227
I1801
(dp1228
g3
I0
sg4
I0
sg5
I0
sg6
I0
sg7
I0
sg8
I0
ssI1802
(dp1229
g3
I0
sg4
I0
sg5
I0
sg6
I0
sg7
I0
sg8
I0
ssI1803
(dp1230
g3
I0
sg4
I0
sg5
I0
sg6
I0
sg7
I0
sg8
I0
ssI1301
(dp1231
g3
I0
sg4
I0
sg5
I0
sg6
I0
sg7
I0
sg8
I0
ssI1302
(dp1232
g3
I0
sg4
I0
sg5
I0
sg6
I0
sg7
I0
sg8
I0
ssI1303
(dp1233
g3
I0
sg4
I0
sg5
I0
sg6
I0
sg7
I0
sg8
I0
ssI801
(dp1234
g3
I0
sg4
I0
sg5
I0
sg6
I0
sg7
I0
sg8
I0
ssI802
(dp1235
g3
I0
sg4
I0
sg5
I0
sg6
I0
sg7
I0
sg8
I0
ssI803
(dp1236
g3
I0
sg4
I0
sg5
I0
sg6
I0
sg7
I0
sg8
I0
ssI301
(dp1237
g3
I0
sg4
I0
sg5
I0
sg6
I0
sg7
I0
sg8
I0
ssI302
(dp1238
g3
I0
sg4
I0
sg5
I0
sg6
I0
sg7
I0
sg8
I0
ssI303
(dp1239
g3
I0
sg4
I0
sg5
I0
sg6
I0
sg7
I0
sg8
I0
ssI1601
(dp1240
g3
I0
sg4
I0
sg5
I0
sg6
I0
sg7
I0
sg8
I0
ssI1602
(dp1241
g3
I0
sg4
I0
sg5
I0
sg6
I0
sg7
I0
sg8
I0
ssI1603
(dp1242
g3
I0
sg4
I0
sg5
I0
sg6
I0
sg7
I0
sg8
I0
ssI1101
(dp1243
g3
I0
sg4
I0
sg5
I0
sg6
I0
sg7
I0
sg8
I0
ssI1102
(dp1244
g3
I0
sg4
I0
sg5
I0
sg6
I0
sg7
I0
sg8
I0
ssI1103
(dp1245
g3
I0
sg4
I0
sg5
I0
sg6
I0
sg7
I0
sg8
I0
ssI601
(dp1246
g3
I0
sg4
I0
sg5
I0
sg6
I0
sg7
I0
sg8
I0
ssI602
(dp1247
g3
I0
sg4
I0
sg5
I0
sg6
I0
sg7
I0
sg8
I0
ssI603
(dp1248
g3
I0
sg4
I0
sg5
I0
sg6
I0
sg7
I0
sg8
I0
ssI101
(dp1249
g3
I0
sg4
I0
sg5
I0
sg6
I0
sg7
I0
sg8
I0
ssI102
(dp1250
g3
I0
sg4
I0
sg5
I0
sg6
I0
sg7
I0
sg8
I0
ssI103
(dp1251
g3
I0
sg4
I0
sg5
I0
sg6
I0
sg7
I0
sg8
I0
ssI1901
(dp1252
g3
I0
sg4
I0
sg5
I0
sg6
I0
sg7
I0
sg8
I0
ssI1902
(dp1253
g3
I0
sg4
I0
sg5
I0
sg6
I0
sg7
I0
sg8
I0
ssI1903
(dp1254
g3
I0
sg4
I0
sg5
I0
sg6
I0
sg7
I0
sg8
I0
ssI1401
(dp1255
g3
I0
sg4
I0
sg5
I0
sg6
I0
sg7
I0
sg8
I0
ssI1402
(dp1256
g3
I0
sg4
I0
sg5
I0
sg6
I0
sg7
I0
sg8
I0
ssI1403
(dp1257
g3
I0
sg4
I0
sg5
I0
sg6
I0
sg7
I0
sg8
I0
ssI901
(dp1258
g3
I0
sg4
I0
sg5
I0
sg6
I0
sg7
I0
sg8
I0
ssI902
(dp1259
g3
I0
sg4
I0
sg5
I0
sg6
I0
sg7
I0
sg8
I0
ssI903
(dp1260
g3
I0
sg4
I0
sg5
I0
sg6
I0
sg7
I0
sg8
I0
ssI401
(dp1261
g3
I0
sg4
I0
sg5
I0
sg6
I0
sg7
I0
sg8
I0
ssI402
(dp1262
g3
I0
sg4
I0
sg5
I0
sg6
I0
sg7
I0
sg8
I0
ssI403
(dp1263
g3
I0
sg4
I0
sg5
I0
sg6
I0
sg7
I0
sg8
I0
ssI1701
(dp1264
g3
I0
sg4
I0
sg5
I0
sg6
I0
sg7
I0
sg8
I0
ssI1702
(dp1265
g3
I0
sg4
I0
sg5
I0
sg6
I0
sg7
I0
sg8
I0
ssI1703
(dp1266
g3
I0
sg4
I0
sg5
I0
sg6
I0
sg7
I0
sg8
I0
ssI1201
(dp1267
g3
I0
sg4
I0
sg5
I0
sg6
I0
sg7
I0
sg8
I0
ssI1202
(dp1268
g3
I0
sg4
I0
sg5
I0
sg6
I0
sg7
I0
sg8
I0
ssI1203
(dp1269
g3
I0
sg4
I0
sg5
I0
sg6
I0
sg7
I0
sg8
I0
ssI701
(dp1270
g3
I0
sg4
I0
sg5
I0
sg6
I0
sg7
I0
sg8
I0
ssI702
(dp1271
g3
I0
sg4
I0
sg5
I0
sg6
I0
sg7
I0
sg8
I0
ssI703
(dp1272
g3
I0
sg4
I0
sg5
I0
sg6
I0
sg7
I0
sg8
I0
ssI201
(dp1273
g3
I0
sg4
I0
sg5
I0
sg6
I0
sg7
I0
sg8
I0
ssI202
(dp1274
g3
I0
sg4
I0
sg5
I0
sg6
I0
sg7
I0
sg8
I0
ssI203
(dp1275
g3
I0
sg4
I0
sg5
I0
sg6
I0
sg7
I0
sg8
I0
ssI2001
(dp1276
g3
I0
sg4
I0
sg5
I0
sg6
I0
sg7
I0
sg8
I0
ssI2002
(dp1277
g3
I0
sg4
I0
sg5
I0
sg6
I0
sg7
I0
sg8
I0
ssI2003
(dp1278
g3
I0
sg4
I0
sg5
I0
sg6
I0
sg7
I0
sg8
I0
ssI1501
(dp1279
g3
I0
sg4
I0
sg5
I0
sg6
I0
sg7
I0
sg8
I0
ssI1502
(dp1280
g3
I0
sg4
I0
sg5
I0
sg6
I0
sg7
I0
sg8
I0
ssI1503
(dp1281
g3
I0
sg4
I0
sg5
I0
sg6
I0
sg7
I0
sg8
I0
ssI1001
(dp1282
g3
I0
sg4
I0
sg5
I0
sg6
I0
sg7
I0
sg8
I0
ssI1002
(dp1283
g3
I0
sg4
I0
sg5
I0
sg6
I0
sg7
I0
sg8
I0
ssI1003
(dp1284
g3
I0
sg4
I0
sg5
I0
sg6
I0
sg7
I0
sg8
I0
ssI501
(dp1285
g3
I0
sg4
I0
sg5
I0
sg6
I0
sg7
I0
sg8
I0
ssI502
(dp1286
g3
I0
sg4
I0
sg5
I0
sg6
I0
sg7
I0
sg8
I0
ssI503
(dp1287
g3
I0
sg4
I0
sg5
I0
sg6
I0
sg7
I0
sg8
I0
sssI22
(dp1288
I1801
(dp1289
g3
I0
sg4
I0
sg5
I0
sg6
I0
sg7
I0
sg8
I0
ssI1802
(dp1290
g3
I0
sg4
I0
sg5
I0
sg6
I0
sg7
I0
sg8
I0
ssI1803
(dp1291
g3
I0
sg4
I0
sg5
I0
sg6
I0
sg7
I0
sg8
I0
ssI1301
(dp1292
g3
I0
sg4
I0
sg5
I0
sg6
I0
sg7
I0
sg8
I0
ssI1302
(dp1293
g3
I0
sg4
I0
sg5
I0
sg6
I0
sg7
I0
sg8
I0
ssI1303
(dp1294
g3
I0
sg4
I0
sg5
I0
sg6
I0
sg7
I0
sg8
I0
ssI801
(dp1295
g3
I0
sg4
I0
sg5
I0
sg6
I0
sg7
I0
sg8
I0
ssI802
(dp1296
g3
I0
sg4
I0
sg5
I0
sg6
I0
sg7
I0
sg8
I0
ssI803
(dp1297
g3
I0
sg4
I0
sg5
I0
sg6
I0
sg7
I0
sg8
I0
ssI301
(dp1298
g3
I0
sg4
I0
sg5
I0
sg6
I0
sg7
I0
sg8
I0
ssI302
(dp1299
g3
I0
sg4
I0
sg5
I0
sg6
I0
sg7
I0
sg8
I0
ssI303
(dp1300
g3
I0
sg4
I0
sg5
I0
sg6
I0
sg7
I0
sg8
I0
ssI1601
(dp1301
g3
I0
sg4
I0
sg5
I0
sg6
I0
sg7
I0
sg8
I0
ssI1602
(dp1302
g3
I0
sg4
I0
sg5
I0
sg6
I0
sg7
I0
sg8
I0
ssI1603
(dp1303
g3
I0
sg4
I0
sg5
I0
sg6
I0
sg7
I0
sg8
I0
ssI1101
(dp1304
g3
I0
sg4
I0
sg5
I0
sg6
I0
sg7
I0
sg8
I0
ssI1102
(dp1305
g3
I0
sg4
I0
sg5
I0
sg6
I0
sg7
I0
sg8
I0
ssI1103
(dp1306
g3
I0
sg4
I0
sg5
I0
sg6
I0
sg7
I0
sg8
I0
ssI601
(dp1307
g3
I0
sg4
I0
sg5
I0
sg6
I0
sg7
I0
sg8
I0
ssI602
(dp1308
g3
I0
sg4
I0
sg5
I0
sg6
I0
sg7
I0
sg8
I0
ssI603
(dp1309
g3
I0
sg4
I0
sg5
I0
sg6
I0
sg7
I0
sg8
I0
ssI101
(dp1310
g3
I0
sg4
I0
sg5
I0
sg6
I0
sg7
I0
sg8
I0
ssI102
(dp1311
g3
I0
sg4
I0
sg5
I0
sg6
I0
sg7
I0
sg8
I0
ssI103
(dp1312
g3
I0
sg4
I0
sg5
I0
sg6
I0
sg7
I0
sg8
I0
ssI1901
(dp1313
g3
I0
sg4
I0
sg5
I0
sg6
I0
sg7
I0
sg8
I0
ssI1902
(dp1314
g3
I0
sg4
I0
sg5
I0
sg6
I0
sg7
I0
sg8
I0
ssI1903
(dp1315
g3
I0
sg4
I0
sg5
I0
sg6
I0
sg7
I0
sg8
I0
ssI1401
(dp1316
g3
I0
sg4
I0
sg5
I0
sg6
I0
sg7
I0
sg8
I0
ssI1402
(dp1317
g3
I0
sg4
I0
sg5
I0
sg6
I0
sg7
I0
sg8
I0
ssI1403
(dp1318
g3
I0
sg4
I0
sg5
I0
sg6
I0
sg7
I0
sg8
I0
ssI901
(dp1319
g3
I0
sg4
I0
sg5
I0
sg6
I0
sg7
I0
sg8
I0
ssI902
(dp1320
g3
I0
sg4
I0
sg5
I0
sg6
I0
sg7
I0
sg8
I0
ssI903
(dp1321
g3
I0
sg4
I0
sg5
I0
sg6
I0
sg7
I0
sg8
I0
ssI401
(dp1322
g3
I0
sg4
I0
sg5
I0
sg6
I0
sg7
I0
sg8
I0
ssI402
(dp1323
g3
I0
sg4
I0
sg5
I0
sg6
I0
sg7
I0
sg8
I0
ssI403
(dp1324
g3
I0
sg4
I0
sg5
I0
sg6
I0
sg7
I0
sg8
I0
ssI1701
(dp1325
g3
I0
sg4
I0
sg5
I0
sg6
I0
sg7
I0
sg8
I0
ssI1702
(dp1326
g3
I0
sg4
I0
sg5
I0
sg6
I0
sg7
I0
sg8
I0
ssI1703
(dp1327
g3
I0
sg4
I0
sg5
I0
sg6
I0
sg7
I0
sg8
I0
ssI1201
(dp1328
g3
I0
sg4
I0
sg5
I0
sg6
I0
sg7
I0
sg8
I0
ssI1202
(dp1329
g3
I0
sg4
I0
sg5
I0
sg6
I0
sg7
I0
sg8
I0
ssI1203
(dp1330
g3
I0
sg4
I0
sg5
I0
sg6
I0
sg7
I0
sg8
I0
ssI701
(dp1331
g3
I0
sg4
I0
sg5
I0
sg6
I0
sg7
I0
sg8
I0
ssI702
(dp1332
g3
I0
sg4
I0
sg5
I0
sg6
I0
sg7
I0
sg8
I0
ssI703
(dp1333
g3
I0
sg4
I0
sg5
I0
sg6
I0
sg7
I0
sg8
I0
ssI201
(dp1334
g3
I0
sg4
I0
sg5
I0
sg6
I0
sg7
I0
sg8
I0
ssI202
(dp1335
g3
I0
sg4
I0
sg5
I0
sg6
I0
sg7
I0
sg8
I0
ssI203
(dp1336
g3
I0
sg4
I0
sg5
I0
sg6
I0
sg7
I0
sg8
I0
ssI2001
(dp1337
g3
I0
sg4
I0
sg5
I0
sg6
I0
sg7
I0
sg8
I0
ssI2002
(dp1338
g3
I0
sg4
I0
sg5
I0
sg6
I0
sg7
I0
sg8
I0
ssI2003
(dp1339
g3
I0
sg4
I0
sg5
I0
sg6
I0
sg7
I0
sg8
I0
ssI1501
(dp1340
g3
I0
sg4
I0
sg5
I0
sg6
I0
sg7
I0
sg8
I0
ssI1502
(dp1341
g3
I0
sg4
I0
sg5
I0
sg6
I0
sg7
I0
sg8
I0
ssI1503
(dp1342
g3
I0
sg4
I0
sg5
I0
sg6
I0
sg7
I0
sg8
I0
ssI1001
(dp1343
g3
I0
sg4
I0
sg5
I0
sg6
I0
sg7
I0
sg8
I0
ssI1002
(dp1344
g3
I0
sg4
I0
sg5
I0
sg6
I0
sg7
I0
sg8
I0
ssI1003
(dp1345
g3
I0
sg4
I0
sg5
I0
sg6
I0
sg7
I0
sg8
I0
ssI501
(dp1346
g3
I0
sg4
I0
sg5
I0
sg6
I0
sg7
I0
sg8
I0
ssI502
(dp1347
g3
I0
sg4
I0
sg5
I0
sg6
I0
sg7
I0
sg8
I0
ssI503
(dp1348
g3
I0
sg4
I0
sg5
I0
sg6
I0
sg7
I0
sg8
I0
sssI23
(dp1349
I1801
(dp1350
g3
I0
sg4
I0
sg5
I0
sg6
I0
sg7
I0
sg8
I0
ssI1802
(dp1351
g3
I0
sg4
I0
sg5
I0
sg6
I0
sg7
I0
sg8
I0
ssI1803
(dp1352
g3
I0
sg4
I0
sg5
I0
sg6
I0
sg7
I0
sg8
I0
ssI1301
(dp1353
g3
I0
sg4
I0
sg5
I0
sg6
I0
sg7
I0
sg8
I0
ssI1302
(dp1354
g3
I0
sg4
I0
sg5
I0
sg6
I0
sg7
I0
sg8
I0
ssI1303
(dp1355
g3
I0
sg4
I0
sg5
I0
sg6
I0
sg7
I0
sg8
I0
ssI801
(dp1356
g3
I0
sg4
I0
sg5
I0
sg6
I0
sg7
I0
sg8
I0
ssI802
(dp1357
g3
I0
sg4
I0
sg5
I0
sg6
I0
sg7
I0
sg8
I0
ssI803
(dp1358
g3
I0
sg4
I0
sg5
I0
sg6
I0
sg7
I0
sg8
I0
ssI301
(dp1359
g3
I0
sg4
I0
sg5
I0
sg6
I0
sg7
I0
sg8
I0
ssI302
(dp1360
g3
I0
sg4
I0
sg5
I0
sg6
I0
sg7
I0
sg8
I0
ssI303
(dp1361
g3
I0
sg4
I0
sg5
I0
sg6
I0
sg7
I0
sg8
I0
ssI1601
(dp1362
g3
I0
sg4
I0
sg5
I0
sg6
I0
sg7
I0
sg8
I0
ssI1602
(dp1363
g3
I0
sg4
I0
sg5
I0
sg6
I0
sg7
I0
sg8
I0
ssI1603
(dp1364
g3
I0
sg4
I0
sg5
I0
sg6
I0
sg7
I0
sg8
I0
ssI1101
(dp1365
g3
I0
sg4
I0
sg5
I0
sg6
I0
sg7
I0
sg8
I0
ssI1102
(dp1366
g3
I0
sg4
I0
sg5
I0
sg6
I0
sg7
I0
sg8
I0
ssI1103
(dp1367
g3
I0
sg4
I0
sg5
I0
sg6
I0
sg7
I0
sg8
I0
ssI601
(dp1368
g3
I0
sg4
I0
sg5
I0
sg6
I0
sg7
I0
sg8
I0
ssI602
(dp1369
g3
I0
sg4
I0
sg5
I0
sg6
I0
sg7
I0
sg8
I0
ssI603
(dp1370
g3
I0
sg4
I0
sg5
I0
sg6
I0
sg7
I0
sg8
I0
ssI101
(dp1371
g3
I0
sg4
I0
sg5
I0
sg6
I0
sg7
I0
sg8
I0
ssI102
(dp1372
g3
I0
sg4
I0
sg5
I0
sg6
I0
sg7
I0
sg8
I0
ssI103
(dp1373
g3
I0
sg4
I0
sg5
I0
sg6
I0
sg7
I0
sg8
I0
ssI1901
(dp1374
g3
I0
sg4
I0
sg5
I0
sg6
I0
sg7
I0
sg8
I0
ssI1902
(dp1375
g3
I0
sg4
I0
sg5
I0
sg6
I0
sg7
I0
sg8
I0
ssI1903
(dp1376
g3
I0
sg4
I0
sg5
I0
sg6
I0
sg7
I0
sg8
I0
ssI1401
(dp1377
g3
I0
sg4
I0
sg5
I0
sg6
I0
sg7
I0
sg8
I0
ssI1402
(dp1378
g3
I0
sg4
I0
sg5
I0
sg6
I0
sg7
I0
sg8
I0
ssI1403
(dp1379
g3
I0
sg4
I0
sg5
I0
sg6
I0
sg7
I0
sg8
I0
ssI901
(dp1380
g3
I0
sg4
I0
sg5
I0
sg6
I0
sg7
I0
sg8
I0
ssI902
(dp1381
g3
I0
sg4
I0
sg5
I0
sg6
I0
sg7
I0
sg8
I0
ssI903
(dp1382
g3
I0
sg4
I0
sg5
I0
sg6
I0
sg7
I0
sg8
I0
ssI401
(dp1383
g3
I0
sg4
I0
sg5
I0
sg6
I0
sg7
I0
sg8
I0
ssI402
(dp1384
g3
I0
sg4
I0
sg5
I0
sg6
I0
sg7
I0
sg8
I0
ssI403
(dp1385
g3
I0
sg4
I0
sg5
I0
sg6
I0
sg7
I0
sg8
I0
ssI1701
(dp1386
g3
I0
sg4
I0
sg5
I0
sg6
I0
sg7
I0
sg8
I0
ssI1702
(dp1387
g3
I0
sg4
I0
sg5
I0
sg6
I0
sg7
I0
sg8
I0
ssI1703
(dp1388
g3
I0
sg4
I0
sg5
I0
sg6
I0
sg7
I0
sg8
I0
ssI1201
(dp1389
g3
I0
sg4
I0
sg5
I0
sg6
I0
sg7
I0
sg8
I0
ssI1202
(dp1390
g3
I0
sg4
I0
sg5
I0
sg6
I0
sg7
I0
sg8
I0
ssI1203
(dp1391
g3
I0
sg4
I0
sg5
I0
sg6
I0
sg7
I0
sg8
I0
ssI701
(dp1392
g3
I0
sg4
I0
sg5
I0
sg6
I0
sg7
I0
sg8
I0
ssI702
(dp1393
g3
I0
sg4
I0
sg5
I0
sg6
I0
sg7
I0
sg8
I0
ssI703
(dp1394
g3
I0
sg4
I0
sg5
I0
sg6
I0
sg7
I0
sg8
I0
ssI201
(dp1395
g3
I0
sg4
I0
sg5
I0
sg6
I0
sg7
I0
sg8
I0
ssI202
(dp1396
g3
I0
sg4
I0
sg5
I0
sg6
I0
sg7
I0
sg8
I0
ssI203
(dp1397
g3
I0
sg4
I0
sg5
I0
sg6
I0
sg7
I0
sg8
I0
ssI2001
(dp1398
g3
I0
sg4
I0
sg5
I0
sg6
I0
sg7
I0
sg8
I0
ssI2002
(dp1399
g3
I0
sg4
I0
sg5
I0
sg6
I0
sg7
I0
sg8
I0
ssI2003
(dp1400
g3
I0
sg4
I0
sg5
I0
sg6
I0
sg7
I0
sg8
I0
ssI1501
(dp1401
g3
I0
sg4
I0
sg5
I0
sg6
I0
sg7
I0
sg8
I0
ssI1502
(dp1402
g3
I0
sg4
I0
sg5
I0
sg6
I0
sg7
I0
sg8
I0
ssI1503
(dp1403
g3
I0
sg4
I0
sg5
I0
sg6
I0
sg7
I0
sg8
I0
ssI1001
(dp1404
g3
I0
sg4
I0
sg5
I0
sg6
I0
sg7
I0
sg8
I0
ssI1002
(dp1405
g3
I0
sg4
I0
sg5
I0
sg6
I0
sg7
I0
sg8
I0
ssI1003
(dp1406
g3
I0
sg4
I0
sg5
I0
sg6
I0
sg7
I0
sg8
I0
ssI501
(dp1407
g3
I0
sg4
I0
sg5
I0
sg6
I0
sg7
I0
sg8
I0
ssI502
(dp1408
g3
I0
sg4
I0
sg5
I0
sg6
I0
sg7
I0
sg8
I0
ssI503
(dp1409
g3
I0
sg4
I0
sg5
I0
sg6
I0
sg7
I0
sg8
I0
sssI24
(dp1410
I1801
(dp1411
g3
I0
sg4
I0
sg5
I0
sg6
I0
sg7
I0
sg8
I0
ssI1802
(dp1412
g3
I0
sg4
I0
sg5
I0
sg6
I0
sg7
I0
sg8
I0
ssI1803
(dp1413
g3
I0
sg4
I0
sg5
I0
sg6
I0
sg7
I0
sg8
I0
ssI1301
(dp1414
g3
I0
sg4
I0
sg5
I0
sg6
I0
sg7
I0
sg8
I0
ssI1302
(dp1415
g3
I0
sg4
I0
sg5
I0
sg6
I0
sg7
I0
sg8
I0
ssI1303
(dp1416
g3
I0
sg4
I0
sg5
I0
sg6
I0
sg7
I0
sg8
I0
ssI801
(dp1417
g3
I0
sg4
I0
sg5
I0
sg6
I0
sg7
I0
sg8
I0
ssI802
(dp1418
g3
I0
sg4
I0
sg5
I0
sg6
I0
sg7
I0
sg8
I0
ssI803
(dp1419
g3
I0
sg4
I0
sg5
I0
sg6
I0
sg7
I0
sg8
I0
ssI301
(dp1420
g3
I0
sg4
I0
sg5
I0
sg6
I0
sg7
I0
sg8
I0
ssI302
(dp1421
g3
I0
sg4
I0
sg5
I0
sg6
I0
sg7
I0
sg8
I0
ssI303
(dp1422
g3
I0
sg4
I0
sg5
I0
sg6
I0
sg7
I0
sg8
I0
ssI1601
(dp1423
g3
I0
sg4
I0
sg5
I0
sg6
I0
sg7
I0
sg8
I0
ssI1602
(dp1424
g3
I0
sg4
I0
sg5
I0
sg6
I0
sg7
I0
sg8
I0
ssI1603
(dp1425
g3
I0
sg4
I0
sg5
I0
sg6
I0
sg7
I0
sg8
I0
ssI1101
(dp1426
g3
I0
sg4
I0
sg5
I0
sg6
I0
sg7
I0
sg8
I0
ssI1102
(dp1427
g3
I0
sg4
I0
sg5
I0
sg6
I0
sg7
I0
sg8
I0
ssI1103
(dp1428
g3
I0
sg4
I0
sg5
I0
sg6
I0
sg7
I0
sg8
I0
ssI601
(dp1429
g3
I0
sg4
I0
sg5
I0
sg6
I0
sg7
I0
sg8
I0
ssI602
(dp1430
g3
I0
sg4
I0
sg5
I0
sg6
I0
sg7
I0
sg8
I0
ssI603
(dp1431
g3
I0
sg4
I0
sg5
I0
sg6
I0
sg7
I0
sg8
I0
ssI101
(dp1432
g3
I0
sg4
I0
sg5
I0
sg6
I0
sg7
I0
sg8
I0
ssI102
(dp1433
g3
I0
sg4
I0
sg5
I0
sg6
I0
sg7
I0
sg8
I0
ssI103
(dp1434
g3
I0
sg4
I0
sg5
I0
sg6
I0
sg7
I0
sg8
I0
ssI1901
(dp1435
g3
I0
sg4
I0
sg5
I0
sg6
I0
sg7
I0
sg8
I0
ssI1902
(dp1436
g3
I0
sg4
I0
sg5
I0
sg6
I0
sg7
I0
sg8
I0
ssI1903
(dp1437
g3
I0
sg4
I0
sg5
I0
sg6
I0
sg7
I0
sg8
I0
ssI1401
(dp1438
g3
I0
sg4
I0
sg5
I0
sg6
I0
sg7
I0
sg8
I0
ssI1402
(dp1439
g3
I0
sg4
I0
sg5
I0
sg6
I0
sg7
I0
sg8
I0
ssI1403
(dp1440
g3
I0
sg4
I0
sg5
I0
sg6
I0
sg7
I0
sg8
I0
ssI901
(dp1441
g3
I0
sg4
I0
sg5
I0
sg6
I0
sg7
I0
sg8
I0
ssI902
(dp1442
g3
I0
sg4
I0
sg5
I0
sg6
I0
sg7
I0
sg8
I0
ssI903
(dp1443
g3
I0
sg4
I0
sg5
I0
sg6
I0
sg7
I0
sg8
I0
ssI401
(dp1444
g3
I0
sg4
I0
sg5
I0
sg6
I0
sg7
I0
sg8
I0
ssI402
(dp1445
g3
I0
sg4
I0
sg5
I0
sg6
I0
sg7
I0
sg8
I0
ssI403
(dp1446
g3
I0
sg4
I0
sg5
I0
sg6
I0
sg7
I0
sg8
I0
ssI1701
(dp1447
g3
I0
sg4
I0
sg5
I0
sg6
I0
sg7
I0
sg8
I0
ssI1702
(dp1448
g3
I0
sg4
I0
sg5
I0
sg6
I0
sg7
I0
sg8
I0
ssI1703
(dp1449
g3
I0
sg4
I0
sg5
I0
sg6
I0
sg7
I0
sg8
I0
ssI1201
(dp1450
g3
I0
sg4
I0
sg5
I0
sg6
I0
sg7
I0
sg8
I0
ssI1202
(dp1451
g3
I0
sg4
I0
sg5
I0
sg6
I0
sg7
I0
sg8
I0
ssI1203
(dp1452
g3
I0
sg4
I0
sg5
I0
sg6
I0
sg7
I0
sg8
I0
ssI701
(dp1453
g3
I0
sg4
I0
sg5
I0
sg6
I0
sg7
I0
sg8
I0
ssI702
(dp1454
g3
I0
sg4
I0
sg5
I0
sg6
I0
sg7
I0
sg8
I0
ssI703
(dp1455
g3
I0
sg4
I0
sg5
I0
sg6
I0
sg7
I0
sg8
I0
ssI201
(dp1456
g3
I0
sg4
I0
sg5
I0
sg6
I0
sg7
I0
sg8
I0
ssI202
(dp1457
g3
I0
sg4
I0
sg5
I0
sg6
I0
sg7
I0
sg8
I0
ssI203
(dp1458
g3
I0
sg4
I0
sg5
I0
sg6
I0
sg7
I0
sg8
I0
ssI2001
(dp1459
g3
I0
sg4
I0
sg5
I0
sg6
I0
sg7
I0
sg8
I0
ssI2002
(dp1460
g3
I0
sg4
I0
sg5
I0
sg6
I0
sg7
I0
sg8
I0
ssI2003
(dp1461
g3
I0
sg4
I0
sg5
I0
sg6
I0
sg7
I0
sg8
I0
ssI1501
(dp1462
g3
I0
sg4
I0
sg5
I0
sg6
I0
sg7
I0
sg8
I0
ssI1502
(dp1463
g3
I0
sg4
I0
sg5
I0
sg6
I0
sg7
I0
sg8
I0
ssI1503
(dp1464
g3
I0
sg4
I0
sg5
I0
sg6
I0
sg7
I0
sg8
I0
ssI1001
(dp1465
g3
I0
sg4
I0
sg5
I0
sg6
I0
sg7
I0
sg8
I0
ssI1002
(dp1466
g3
I0
sg4
I0
sg5
I0
sg6
I0
sg7
I0
sg8
I0
ssI1003
(dp1467
g3
I0
sg4
I0
sg5
I0
sg6
I0
sg7
I0
sg8
I0
ssI501
(dp1468
g3
I0
sg4
I0
sg5
I0
sg6
I0
sg7
I0
sg8
I0
ssI502
(dp1469
g3
I0
sg4
I0
sg5
I0
sg6
I0
sg7
I0
sg8
I0
ssI503
(dp1470
g3
I0
sg4
I0
sg5
I0
sg6
I0
sg7
I0
sg8
I0
sssI25
(dp1471
I1801
(dp1472
g3
I0
sg4
I0
sg5
I0
sg6
I0
sg7
I0
sg8
I0
ssI1802
(dp1473
g3
I0
sg4
I0
sg5
I0
sg6
I0
sg7
I0
sg8
I0
ssI1803
(dp1474
g3
I0
sg4
I0
sg5
I0
sg6
I0
sg7
I0
sg8
I0
ssI1301
(dp1475
g3
I0
sg4
I0
sg5
I0
sg6
I0
sg7
I0
sg8
I0
ssI1302
(dp1476
g3
I0
sg4
I0
sg5
I0
sg6
I0
sg7
I0
sg8
I0
ssI1303
(dp1477
g3
I0
sg4
I0
sg5
I0
sg6
I0
sg7
I0
sg8
I0
ssI801
(dp1478
g3
I0
sg4
I0
sg5
I0
sg6
I0
sg7
I0
sg8
I0
ssI802
(dp1479
g3
I0
sg4
I0
sg5
I0
sg6
I0
sg7
I0
sg8
I0
ssI803
(dp1480
g3
I0
sg4
I0
sg5
I0
sg6
I0
sg7
I0
sg8
I0
ssI301
(dp1481
g3
I0
sg4
I0
sg5
I0
sg6
I0
sg7
I0
sg8
I0
ssI302
(dp1482
g3
I0
sg4
I0
sg5
I0
sg6
I0
sg7
I0
sg8
I0
ssI303
(dp1483
g3
I0
sg4
I0
sg5
I0
sg6
I0
sg7
I0
sg8
I0
ssI1601
(dp1484
g3
I0
sg4
I0
sg5
I0
sg6
I0
sg7
I0
sg8
I0
ssI1602
(dp1485
g3
I0
sg4
I0
sg5
I0
sg6
I0
sg7
I0
sg8
I0
ssI1603
(dp1486
g3
I0
sg4
I0
sg5
I0
sg6
I0
sg7
I0
sg8
I0
ssI1101
(dp1487
g3
I0
sg4
I0
sg5
I0
sg6
I0
sg7
I0
sg8
I0
ssI1102
(dp1488
g3
I0
sg4
I0
sg5
I0
sg6
I0
sg7
I0
sg8
I0
ssI1103
(dp1489
g3
I0
sg4
I0
sg5
I0
sg6
I0
sg7
I0
sg8
I0
ssI601
(dp1490
g3
I0
sg4
I0
sg5
I0
sg6
I0
sg7
I0
sg8
I0
ssI602
(dp1491
g3
I0
sg4
I0
sg5
I0
sg6
I0
sg7
I0
sg8
I0
ssI603
(dp1492
g3
I0
sg4
I0
sg5
I0
sg6
I0
sg7
I0
sg8
I0
ssI101
(dp1493
g3
I0
sg4
I0
sg5
I0
sg6
I0
sg7
I0
sg8
I0
ssI102
(dp1494
g3
I0
sg4
I0
sg5
I0
sg6
I0
sg7
I0
sg8
I0
ssI103
(dp1495
g3
I0
sg4
I0
sg5
I0
sg6
I0
sg7
I0
sg8
I0
ssI1901
(dp1496
g3
I0
sg4
I0
sg5
I0
sg6
I0
sg7
I0
sg8
I0
ssI1902
(dp1497
g3
I0
sg4
I0
sg5
I0
sg6
I0
sg7
I0
sg8
I0
ssI1903
(dp1498
g3
I0
sg4
I0
sg5
I0
sg6
I0
sg7
I0
sg8
I0
ssI1401
(dp1499
g3
I0
sg4
I0
sg5
I0
sg6
I0
sg7
I0
sg8
I0
ssI1402
(dp1500
g3
I0
sg4
I0
sg5
I0
sg6
I0
sg7
I0
sg8
I0
ssI1403
(dp1501
g3
I0
sg4
I0
sg5
I0
sg6
I0
sg7
I0
sg8
I0
ssI901
(dp1502
g3
I0
sg4
I0
sg5
I0
sg6
I0
sg7
I0
sg8
I0
ssI902
(dp1503
g3
I0
sg4
I0
sg5
I0
sg6
I0
sg7
I0
sg8
I0
ssI903
(dp1504
g3
I0
sg4
I0
sg5
I0
sg6
I0
sg7
I0
sg8
I0
ssI401
(dp1505
g3
I0
sg4
I0
sg5
I0
sg6
I0
sg7
I0
sg8
I0
ssI402
(dp1506
g3
I0
sg4
I0
sg5
I0
sg6
I0
sg7
I0
sg8
I0
ssI403
(dp1507
g3
I0
sg4
I0
sg5
I0
sg6
I0
sg7
I0
sg8
I0
ssI1701
(dp1508
g3
I0
sg4
I0
sg5
I0
sg6
I0
sg7
I0
sg8
I0
ssI1702
(dp1509
g3
I0
sg4
I0
sg5
I0
sg6
I0
sg7
I0
sg8
I0
ssI1703
(dp1510
g3
I0
sg4
I0
sg5
I0
sg6
I0
sg7
I0
sg8
I0
ssI1201
(dp1511
g3
I0
sg4
I0
sg5
I0
sg6
I0
sg7
I0
sg8
I0
ssI1202
(dp1512
g3
I0
sg4
I0
sg5
I0
sg6
I0
sg7
I0
sg8
I0
ssI1203
(dp1513
g3
I0
sg4
I0
sg5
I0
sg6
I0
sg7
I0
sg8
I0
ssI701
(dp1514
g3
I0
sg4
I0
sg5
I0
sg6
I0
sg7
I0
sg8
I0
ssI702
(dp1515
g3
I0
sg4
I0
sg5
I0
sg6
I0
sg7
I0
sg8
I0
ssI703
(dp1516
g3
I0
sg4
I0
sg5
I0
sg6
I0
sg7
I0
sg8
I0
ssI201
(dp1517
g3
I0
sg4
I0
sg5
I0
sg6
I0
sg7
I0
sg8
I0
ssI202
(dp1518
g3
I0
sg4
I0
sg5
I0
sg6
I0
sg7
I0
sg8
I0
ssI203
(dp1519
g3
I0
sg4
I0
sg5
I0
sg6
I0
sg7
I0
sg8
I0
ssI2001
(dp1520
g3
I0
sg4
I0
sg5
I0
sg6
I0
sg7
I0
sg8
I0
ssI2002
(dp1521
g3
I0
sg4
I0
sg5
I0
sg6
I0
sg7
I0
sg8
I0
ssI2003
(dp1522
g3
I0
sg4
I0
sg5
I0
sg6
I0
sg7
I0
sg8
I0
ssI1501
(dp1523
g3
I0
sg4
I0
sg5
I0
sg6
I0
sg7
I0
sg8
I0
ssI1502
(dp1524
g3
I0
sg4
I0
sg5
I0
sg6
I0
sg7
I0
sg8
I0
ssI1503
(dp1525
g3
I0
sg4
I0
sg5
I0
sg6
I0
sg7
I0
sg8
I0
ssI1001
(dp1526
g3
I0
sg4
I0
sg5
I0
sg6
I0
sg7
I0
sg8
I0
ssI1002
(dp1527
g3
I0
sg4
I0
sg5
I0
sg6
I0
sg7
I0
sg8
I0
ssI1003
(dp1528
g3
I0
sg4
I0
sg5
I0
sg6
I0
sg7
I0
sg8
I0
ssI501
(dp1529
g3
I0
sg4
I0
sg5
I0
sg6
I0
sg7
I0
sg8
I0
ssI502
(dp1530
g3
I0
sg4
I0
sg5
I0
sg6
I0
sg7
I0
sg8
I0
ssI503
(dp1531
g3
I0
sg4
I0
sg5
I0
sg6
I0
sg7
I0
sg8
I0
sssI26
(dp1532
I1801
(dp1533
g3
I0
sg4
I0
sg5
I0
sg6
I0
sg7
I0
sg8
I0
ssI1802
(dp1534
g3
I0
sg4
I0
sg5
I0
sg6
I0
sg7
I0
sg8
I0
ssI1803
(dp1535
g3
I0
sg4
I0
sg5
I0
sg6
I0
sg7
I0
sg8
I0
ssI1301
(dp1536
g3
I0
sg4
I0
sg5
I0
sg6
I0
sg7
I0
sg8
I0
ssI1302
(dp1537
g3
I0
sg4
I0
sg5
I0
sg6
I0
sg7
I0
sg8
I0
ssI1303
(dp1538
g3
I0
sg4
I0
sg5
I0
sg6
I0
sg7
I0
sg8
I0
ssI801
(dp1539
g3
I0
sg4
I0
sg5
I0
sg6
I0
sg7
I0
sg8
I0
ssI802
(dp1540
g3
I0
sg4
I0
sg5
I0
sg6
I0
sg7
I0
sg8
I0
ssI803
(dp1541
g3
I0
sg4
I0
sg5
I0
sg6
I0
sg7
I0
sg8
I0
ssI301
(dp1542
g3
I0
sg4
I0
sg5
I0
sg6
I0
sg7
I0
sg8
I0
ssI302
(dp1543
g3
I0
sg4
I0
sg5
I0
sg6
I0
sg7
I0
sg8
I0
ssI303
(dp1544
g3
I0
sg4
I0
sg5
I0
sg6
I0
sg7
I0
sg8
I0
ssI1601
(dp1545
g3
I0
sg4
I0
sg5
I0
sg6
I0
sg7
I0
sg8
I0
ssI1602
(dp1546
g3
I0
sg4
I0
sg5
I0
sg6
I0
sg7
I0
sg8
I0
ssI1603
(dp1547
g3
I0
sg4
I0
sg5
I0
sg6
I0
sg7
I0
sg8
I0
ssI1101
(dp1548
g3
I0
sg4
I0
sg5
I0
sg6
I0
sg7
I0
sg8
I0
ssI1102
(dp1549
g3
I0
sg4
I0
sg5
I0
sg6
I0
sg7
I0
sg8
I0
ssI1103
(dp1550
g3
I0
sg4
I0
sg5
I0
sg6
I0
sg7
I0
sg8
I0
ssI601
(dp1551
g3
I0
sg4
I0
sg5
I0
sg6
I0
sg7
I0
sg8
I0
ssI602
(dp1552
g3
I0
sg4
I0
sg5
I0
sg6
I0
sg7
I0
sg8
I0
ssI603
(dp1553
g3
I0
sg4
I0
sg5
I0
sg6
I0
sg7
I0
sg8
I0
ssI101
(dp1554
g3
I0
sg4
I0
sg5
I0
sg6
I0
sg7
I0
sg8
I0
ssI102
(dp1555
g3
I0
sg4
I0
sg5
I0
sg6
I0
sg7
I0
sg8
I0
ssI103
(dp1556
g3
I0
sg4
I0
sg5
I0
sg6
I0
sg7
I0
sg8
I0
ssI1901
(dp1557
g3
I0
sg4
I0
sg5
I0
sg6
I0
sg7
I0
sg8
I0
ssI1902
(dp1558
g3
I0
sg4
I0
sg5
I0
sg6
I0
sg7
I0
sg8
I0
ssI1903
(dp1559
g3
I0
sg4
I0
sg5
I0
sg6
I0
sg7
I0
sg8
I0
ssI1401
(dp1560
g3
I0
sg4
I0
sg5
I0
sg6
I0
sg7
I0
sg8
I0
ssI1402
(dp1561
g3
I0
sg4
I0
sg5
I0
sg6
I0
sg7
I0
sg8
I0
ssI1403
(dp1562
g3
I0
sg4
I0
sg5
I0
sg6
I0
sg7
I0
sg8
I0
ssI901
(dp1563
g3
I0
sg4
I0
sg5
I0
sg6
I0
sg7
I0
sg8
I0
ssI902
(dp1564
g3
I0
sg4
I0
sg5
I0
sg6
I0
sg7
I0
sg8
I0
ssI903
(dp1565
g3
I0
sg4
I0
sg5
I0
sg6
I0
sg7
I0
sg8
I0
ssI401
(dp1566
g3
I0
sg4
I0
sg5
I0
sg6
I0
sg7
I0
sg8
I0
ssI402
(dp1567
g3
I0
sg4
I0
sg5
I0
sg6
I0
sg7
I0
sg8
I0
ssI403
(dp1568
g3
I0
sg4
I0
sg5
I0
sg6
I0
sg7
I0
sg8
I0
ssI1701
(dp1569
g3
I0
sg4
I0
sg5
I0
sg6
I0
sg7
I0
sg8
I0
ssI1702
(dp1570
g3
I0
sg4
I0
sg5
I0
sg6
I0
sg7
I0
sg8
I0
ssI1703
(dp1571
g3
I0
sg4
I0
sg5
I0
sg6
I0
sg7
I0
sg8
I0
ssI1201
(dp1572
g3
I0
sg4
I0
sg5
I0
sg6
I0
sg7
I0
sg8
I0
ssI1202
(dp1573
g3
I0
sg4
I0
sg5
I0
sg6
I0
sg7
I0
sg8
I0
ssI1203
(dp1574
g3
I0
sg4
I0
sg5
I0
sg6
I0
sg7
I0
sg8
I0
ssI701
(dp1575
g3
I0
sg4
I0
sg5
I0
sg6
I0
sg7
I0
sg8
I0
ssI702
(dp1576
g3
I0
sg4
I0
sg5
I0
sg6
I0
sg7
I0
sg8
I0
ssI703
(dp1577
g3
I0
sg4
I0
sg5
I0
sg6
I0
sg7
I0
sg8
I0
ssI201
(dp1578
g3
I0
sg4
I0
sg5
I0
sg6
I0
sg7
I0
sg8
I0
ssI202
(dp1579
g3
I0
sg4
I0
sg5
I0
sg6
I0
sg7
I0
sg8
I0
ssI203
(dp1580
g3
I0
sg4
I0
sg5
I0
sg6
I0
sg7
I0
sg8
I0
ssI2001
(dp1581
g3
I0
sg4
I0
sg5
I0
sg6
I0
sg7
I0
sg8
I0
ssI2002
(dp1582
g3
I0
sg4
I0
sg5
I0
sg6
I0
sg7
I0
sg8
I0
ssI2003
(dp1583
g3
I0
sg4
I0
sg5
I0
sg6
I0
sg7
I0
sg8
I0
ssI1501
(dp1584
g3
I0
sg4
I0
sg5
I0
sg6
I0
sg7
I0
sg8
I0
ssI1502
(dp1585
g3
I0
sg4
I0
sg5
I0
sg6
I0
sg7
I0
sg8
I0
ssI1503
(dp1586
g3
I0
sg4
I0
sg5
I0
sg6
I0
sg7
I0
sg8
I0
ssI1001
(dp1587
g3
I0
sg4
I0
sg5
I0
sg6
I0
sg7
I0
sg8
I0
ssI1002
(dp1588
g3
I0
sg4
I0
sg5
I0
sg6
I0
sg7
I0
sg8
I0
ssI1003
(dp1589
g3
I0
sg4
I0
sg5
I0
sg6
I0
sg7
I0
sg8
I0
ssI501
(dp1590
g3
I0
sg4
I0
sg5
I0
sg6
I0
sg7
I0
sg8
I0
ssI502
(dp1591
g3
I0
sg4
I0
sg5
I0
sg6
I0
sg7
I0
sg8
I0
ssI503
(dp1592
g3
I0
sg4
I0
sg5
I0
sg6
I0
sg7
I0
sg8
I0
sssI27
(dp1593
I1801
(dp1594
g3
I0
sg4
I0
sg5
I0
sg6
I0
sg7
I0
sg8
I0
ssI1802
(dp1595
g3
I0
sg4
I0
sg5
I0
sg6
I0
sg7
I0
sg8
I0
ssI1803
(dp1596
g3
I0
sg4
I0
sg5
I0
sg6
I0
sg7
I0
sg8
I0
ssI1301
(dp1597
g3
I0
sg4
I0
sg5
I0
sg6
I0
sg7
I0
sg8
I0
ssI1302
(dp1598
g3
I0
sg4
I0
sg5
I0
sg6
I0
sg7
I0
sg8
I0
ssI1303
(dp1599
g3
I0
sg4
I0
sg5
I0
sg6
I0
sg7
I0
sg8
I0
ssI801
(dp1600
g3
I0
sg4
I0
sg5
I0
sg6
I0
sg7
I0
sg8
I0
ssI802
(dp1601
g3
I0
sg4
I0
sg5
I0
sg6
I0
sg7
I0
sg8
I0
ssI803
(dp1602
g3
I0
sg4
I0
sg5
I0
sg6
I0
sg7
I0
sg8
I0
ssI301
(dp1603
g3
I0
sg4
I0
sg5
I0
sg6
I0
sg7
I0
sg8
I0
ssI302
(dp1604
g3
I0
sg4
I0
sg5
I0
sg6
I0
sg7
I0
sg8
I0
ssI303
(dp1605
g3
I0
sg4
I0
sg5
I0
sg6
I0
sg7
I0
sg8
I0
ssI1601
(dp1606
g3
I0
sg4
I0
sg5
I0
sg6
I0
sg7
I0
sg8
I0
ssI1602
(dp1607
g3
I0
sg4
I0
sg5
I0
sg6
I0
sg7
I0
sg8
I0
ssI1603
(dp1608
g3
I0
sg4
I0
sg5
I0
sg6
I0
sg7
I0
sg8
I0
ssI1101
(dp1609
g3
I0
sg4
I0
sg5
I0
sg6
I0
sg7
I0
sg8
I0
ssI1102
(dp1610
g3
I0
sg4
I0
sg5
I0
sg6
I0
sg7
I0
sg8
I0
ssI1103
(dp1611
g3
I0
sg4
I0
sg5
I0
sg6
I0
sg7
I0
sg8
I0
ssI601
(dp1612
g3
I0
sg4
I0
sg5
I0
sg6
I0
sg7
I0
sg8
I0
ssI602
(dp1613
g3
I0
sg4
I0
sg5
I0
sg6
I0
sg7
I0
sg8
I0
ssI603
(dp1614
g3
I0
sg4
I0
sg5
I0
sg6
I0
sg7
I0
sg8
I0
ssI101
(dp1615
g3
I0
sg4
I0
sg5
I0
sg6
I0
sg7
I0
sg8
I0
ssI102
(dp1616
g3
I0
sg4
I0
sg5
I0
sg6
I0
sg7
I0
sg8
I0
ssI103
(dp1617
g3
I0
sg4
I0
sg5
I0
sg6
I0
sg7
I0
sg8
I0
ssI1901
(dp1618
g3
I0
sg4
I0
sg5
I0
sg6
I0
sg7
I0
sg8
I0
ssI1902
(dp1619
g3
I0
sg4
I0
sg5
I0
sg6
I0
sg7
I0
sg8
I0
ssI1903
(dp1620
g3
I0
sg4
I0
sg5
I0
sg6
I0
sg7
I0
sg8
I0
ssI1401
(dp1621
g3
I0
sg4
I0
sg5
I0
sg6
I0
sg7
I0
sg8
I0
ssI1402
(dp1622
g3
I0
sg4
I0
sg5
I0
sg6
I0
sg7
I0
sg8
I0
ssI1403
(dp1623
g3
I0
sg4
I0
sg5
I0
sg6
I0
sg7
I0
sg8
I0
ssI901
(dp1624
g3
I0
sg4
I0
sg5
I0
sg6
I0
sg7
I0
sg8
I0
ssI902
(dp1625
g3
I0
sg4
I0
sg5
I0
sg6
I0
sg7
I0
sg8
I0
ssI903
(dp1626
g3
I0
sg4
I0
sg5
I0
sg6
I0
sg7
I0
sg8
I0
ssI401
(dp1627
g3
I0
sg4
I0
sg5
I0
sg6
I0
sg7
I0
sg8
I0
ssI402
(dp1628
g3
I0
sg4
I0
sg5
I0
sg6
I0
sg7
I0
sg8
I0
ssI403
(dp1629
g3
I0
sg4
I0
sg5
I0
sg6
I0
sg7
I0
sg8
I0
ssI1701
(dp1630
g3
I0
sg4
I0
sg5
I0
sg6
I0
sg7
I0
sg8
I0
ssI1702
(dp1631
g3
I0
sg4
I0
sg5
I0
sg6
I0
sg7
I0
sg8
I0
ssI1703
(dp1632
g3
I0
sg4
I0
sg5
I0
sg6
I0
sg7
I0
sg8
I0
ssI1201
(dp1633
g3
I0
sg4
I0
sg5
I0
sg6
I0
sg7
I0
sg8
I0
ssI1202
(dp1634
g3
I0
sg4
I0
sg5
I0
sg6
I0
sg7
I0
sg8
I0
ssI1203
(dp1635
g3
I0
sg4
I0
sg5
I0
sg6
I0
sg7
I0
sg8
I0
ssI701
(dp1636
g3
I0
sg4
I0
sg5
I0
sg6
I0
sg7
I0
sg8
I0
ssI702
(dp1637
g3
I0
sg4
I0
sg5
I0
sg6
I0
sg7
I0
sg8
I0
ssI703
(dp1638
g3
I0
sg4
I0
sg5
I0
sg6
I0
sg7
I0
sg8
I0
ssI201
(dp1639
g3
I0
sg4
I0
sg5
I0
sg6
I0
sg7
I0
sg8
I0
ssI202
(dp1640
g3
I0
sg4
I0
sg5
I0
sg6
I0
sg7
I0
sg8
I0
ssI203
(dp1641
g3
I0
sg4
I0
sg5
I0
sg6
I0
sg7
I0
sg8
I0
ssI2001
(dp1642
g3
I0
sg4
I0
sg5
I0
sg6
I0
sg7
I0
sg8
I0
ssI2002
(dp1643
g3
I0
sg4
I0
sg5
I0
sg6
I0
sg7
I0
sg8
I0
ssI2003
(dp1644
g3
I0
sg4
I0
sg5
I0
sg6
I0
sg7
I0
sg8
I0
ssI1501
(dp1645
g3
I0
sg4
I0
sg5
I0
sg6
I0
sg7
I0
sg8
I0
ssI1502
(dp1646
g3
I0
sg4
I0
sg5
I0
sg6
I0
sg7
I0
sg8
I0
ssI1503
(dp1647
g3
I0
sg4
I0
sg5
I0
sg6
I0
sg7
I0
sg8
I0
ssI1001
(dp1648
g3
I0
sg4
I0
sg5
I0
sg6
I0
sg7
I0
sg8
I0
ssI1002
(dp1649
g3
I0
sg4
I0
sg5
I0
sg6
I0
sg7
I0
sg8
I0
ssI1003
(dp1650
g3
I0
sg4
I0
sg5
I0
sg6
I0
sg7
I0
sg8
I0
ssI501
(dp1651
g3
I0
sg4
I0
sg5
I0
sg6
I0
sg7
I0
sg8
I0
ssI502
(dp1652
g3
I0
sg4
I0
sg5
I0
sg6
I0
sg7
I0
sg8
I0
ssI503
(dp1653
g3
I0
sg4
I0
sg5
I0
sg6
I0
sg7
I0
sg8
I0
sssI28
(dp1654
I1801
(dp1655
g3
I0
sg4
I0
sg5
I0
sg6
I0
sg7
I0
sg8
I0
ssI1802
(dp1656
g3
I0
sg4
I0
sg5
I0
sg6
I0
sg7
I0
sg8
I0
ssI1803
(dp1657
g3
I0
sg4
I0
sg5
I0
sg6
I0
sg7
I0
sg8
I0
ssI1301
(dp1658
g3
I0
sg4
I0
sg5
I0
sg6
I0
sg7
I0
sg8
I0
ssI1302
(dp1659
g3
I0
sg4
I0
sg5
I0
sg6
I0
sg7
I0
sg8
I0
ssI1303
(dp1660
g3
I0
sg4
I0
sg5
I0
sg6
I0
sg7
I0
sg8
I0
ssI801
(dp1661
g3
I0
sg4
I0
sg5
I0
sg6
I0
sg7
I0
sg8
I0
ssI802
(dp1662
g3
I0
sg4
I0
sg5
I0
sg6
I0
sg7
I0
sg8
I0
ssI803
(dp1663
g3
I0
sg4
I0
sg5
I0
sg6
I0
sg7
I0
sg8
I0
ssI301
(dp1664
g3
I0
sg4
I0
sg5
I0
sg6
I0
sg7
I0
sg8
I0
ssI302
(dp1665
g3
I0
sg4
I0
sg5
I0
sg6
I0
sg7
I0
sg8
I0
ssI303
(dp1666
g3
I0
sg4
I0
sg5
I0
sg6
I0
sg7
I0
sg8
I0
ssI1601
(dp1667
g3
I0
sg4
I0
sg5
I0
sg6
I0
sg7
I0
sg8
I0
ssI1602
(dp1668
g3
I0
sg4
I0
sg5
I0
sg6
I0
sg7
I0
sg8
I0
ssI1603
(dp1669
g3
I0
sg4
I0
sg5
I0
sg6
I0
sg7
I0
sg8
I0
ssI1101
(dp1670
g3
I0
sg4
I0
sg5
I0
sg6
I0
sg7
I0
sg8
I0
ssI1102
(dp1671
g3
I0
sg4
I0
sg5
I0
sg6
I0
sg7
I0
sg8
I0
ssI1103
(dp1672
g3
I0
sg4
I0
sg5
I0
sg6
I0
sg7
I0
sg8
I0
ssI601
(dp1673
g3
I0
sg4
I0
sg5
I0
sg6
I0
sg7
I0
sg8
I0
ssI602
(dp1674
g3
I0
sg4
I0
sg5
I0
sg6
I0
sg7
I0
sg8
I0
ssI603
(dp1675
g3
I0
sg4
I0
sg5
I0
sg6
I0
sg7
I0
sg8
I0
ssI101
(dp1676
g3
I0
sg4
I0
sg5
I0
sg6
I0
sg7
I0
sg8
I0
ssI102
(dp1677
g3
I0
sg4
I0
sg5
I0
sg6
I0
sg7
I0
sg8
I0
ssI103
(dp1678
g3
I0
sg4
I0
sg5
I0
sg6
I0
sg7
I0
sg8
I0
ssI1901
(dp1679
g3
I0
sg4
I0
sg5
I0
sg6
I0
sg7
I0
sg8
I0
ssI1902
(dp1680
g3
I0
sg4
I0
sg5
I0
sg6
I0
sg7
I0
sg8
I0
ssI1903
(dp1681
g3
I0
sg4
I0
sg5
I0
sg6
I0
sg7
I0
sg8
I0
ssI1401
(dp1682
g3
I0
sg4
I0
sg5
I0
sg6
I0
sg7
I0
sg8
I0
ssI1402
(dp1683
g3
I0
sg4
I0
sg5
I0
sg6
I0
sg7
I0
sg8
I0
ssI1403
(dp1684
g3
I0
sg4
I0
sg5
I0
sg6
I0
sg7
I0
sg8
I0
ssI901
(dp1685
g3
I0
sg4
I0
sg5
I0
sg6
I0
sg7
I0
sg8
I0
ssI902
(dp1686
g3
I0
sg4
I0
sg5
I0
sg6
I0
sg7
I0
sg8
I0
ssI903
(dp1687
g3
I0
sg4
I0
sg5
I0
sg6
I0
sg7
I0
sg8
I0
ssI401
(dp1688
g3
I0
sg4
I0
sg5
I0
sg6
I0
sg7
I0
sg8
I0
ssI402
(dp1689
g3
I0
sg4
I0
sg5
I0
sg6
I0
sg7
I0
sg8
I0
ssI403
(dp1690
g3
I0
sg4
I0
sg5
I0
sg6
I0
sg7
I0
sg8
I0
ssI1701
(dp1691
g3
I0
sg4
I0
sg5
I0
sg6
I0
sg7
I0
sg8
I0
ssI1702
(dp1692
g3
I0
sg4
I0
sg5
I0
sg6
I0
sg7
I0
sg8
I0
ssI1703
(dp1693
g3
I0
sg4
I0
sg5
I0
sg6
I0
sg7
I0
sg8
I0
ssI1201
(dp1694
g3
I0
sg4
I0
sg5
I0
sg6
I0
sg7
I0
sg8
I0
ssI1202
(dp1695
g3
I0
sg4
I0
sg5
I0
sg6
I0
sg7
I0
sg8
I0
ssI1203
(dp1696
g3
I0
sg4
I0
sg5
I0
sg6
I0
sg7
I0
sg8
I0
ssI701
(dp1697
g3
I0
sg4
I0
sg5
I0
sg6
I0
sg7
I0
sg8
I0
ssI702
(dp1698
g3
I0
sg4
I0
sg5
I0
sg6
I0
sg7
I0
sg8
I0
ssI703
(dp1699
g3
I0
sg4
I0
sg5
I0
sg6
I0
sg7
I0
sg8
I0
ssI201
(dp1700
g3
I0
sg4
I0
sg5
I0
sg6
I0
sg7
I0
sg8
I0
ssI202
(dp1701
g3
I0
sg4
I0
sg5
I0
sg6
I0
sg7
I0
sg8
I0
ssI203
(dp1702
g3
I0
sg4
I0
sg5
I0
sg6
I0
sg7
I0
sg8
I0
ssI2001
(dp1703
g3
I0
sg4
I0
sg5
I0
sg6
I0
sg7
I0
sg8
I0
ssI2002
(dp1704
g3
I0
sg4
I0
sg5
I0
sg6
I0
sg7
I0
sg8
I0
ssI2003
(dp1705
g3
I0
sg4
I0
sg5
I0
sg6
I0
sg7
I0
sg8
I0
ssI1501
(dp1706
g3
I0
sg4
I0
sg5
I0
sg6
I0
sg7
I0
sg8
I0
ssI1502
(dp1707
g3
I0
sg4
I0
sg5
I0
sg6
I0
sg7
I0
sg8
I0
ssI1503
(dp1708
g3
I0
sg4
I0
sg5
I0
sg6
I0
sg7
I0
sg8
I0
ssI1001
(dp1709
g3
I0
sg4
I0
sg5
I0
sg6
I0
sg7
I0
sg8
I0
ssI1002
(dp1710
g3
I0
sg4
I0
sg5
I0
sg6
I0
sg7
I0
sg8
I0
ssI1003
(dp1711
g3
I0
sg4
I0
sg5
I0
sg6
I0
sg7
I0
sg8
I0
ssI501
(dp1712
g3
I0
sg4
I0
sg5
I0
sg6
I0
sg7
I0
sg8
I0
ssI502
(dp1713
g3
I0
sg4
I0
sg5
I0
sg6
I0
sg7
I0
sg8
I0
ssI503
(dp1714
g3
I0
sg4
I0
sg5
I0
sg6
I0
sg7
I0
sg8
I0
sssI29
(dp1715
I1801
(dp1716
g3
I0
sg4
I0
sg5
I0
sg6
I0
sg7
I0
sg8
I0
ssI1802
(dp1717
g3
I0
sg4
I0
sg5
I0
sg6
I0
sg7
I0
sg8
I0
ssI1803
(dp1718
g3
I0
sg4
I0
sg5
I0
sg6
I0
sg7
I0
sg8
I0
ssI1301
(dp1719
g3
I0
sg4
I0
sg5
I0
sg6
I0
sg7
I0
sg8
I0
ssI1302
(dp1720
g3
I0
sg4
I0
sg5
I0
sg6
I0
sg7
I0
sg8
I0
ssI1303
(dp1721
g3
I0
sg4
I0
sg5
I0
sg6
I0
sg7
I0
sg8
I0
ssI801
(dp1722
g3
I0
sg4
I0
sg5
I0
sg6
I0
sg7
I0
sg8
I0
ssI802
(dp1723
g3
I0
sg4
I0
sg5
I0
sg6
I0
sg7
I0
sg8
I0
ssI803
(dp1724
g3
I0
sg4
I0
sg5
I0
sg6
I0
sg7
I0
sg8
I0
ssI301
(dp1725
g3
I0
sg4
I0
sg5
I0
sg6
I0
sg7
I0
sg8
I0
ssI302
(dp1726
g3
I0
sg4
I0
sg5
I0
sg6
I0
sg7
I0
sg8
I0
ssI303
(dp1727
g3
I0
sg4
I0
sg5
I0
sg6
I0
sg7
I0
sg8
I0
ssI1601
(dp1728
g3
I0
sg4
I0
sg5
I0
sg6
I0
sg7
I0
sg8
I0
ssI1602
(dp1729
g3
I0
sg4
I0
sg5
I0
sg6
I0
sg7
I0
sg8
I0
ssI1603
(dp1730
g3
I0
sg4
I0
sg5
I0
sg6
I0
sg7
I0
sg8
I0
ssI1101
(dp1731
g3
I0
sg4
I0
sg5
I0
sg6
I0
sg7
I0
sg8
I0
ssI1102
(dp1732
g3
I0
sg4
I0
sg5
I0
sg6
I0
sg7
I0
sg8
I0
ssI1103
(dp1733
g3
I0
sg4
I0
sg5
I0
sg6
I0
sg7
I0
sg8
I0
ssI601
(dp1734
g3
I0
sg4
I0
sg5
I0
sg6
I0
sg7
I0
sg8
I0
ssI602
(dp1735
g3
I0
sg4
I0
sg5
I0
sg6
I0
sg7
I0
sg8
I0
ssI603
(dp1736
g3
I0
sg4
I0
sg5
I0
sg6
I0
sg7
I0
sg8
I0
ssI101
(dp1737
g3
I0
sg4
I0
sg5
I0
sg6
I0
sg7
I0
sg8
I0
ssI102
(dp1738
g3
I0
sg4
I0
sg5
I0
sg6
I0
sg7
I0
sg8
I0
ssI103
(dp1739
g3
I0
sg4
I0
sg5
I0
sg6
I0
sg7
I0
sg8
I0
ssI1901
(dp1740
g3
I0
sg4
I0
sg5
I0
sg6
I0
sg7
I0
sg8
I0
ssI1902
(dp1741
g3
I0
sg4
I0
sg5
I0
sg6
I0
sg7
I0
sg8
I0
ssI1903
(dp1742
g3
I0
sg4
I0
sg5
I0
sg6
I0
sg7
I0
sg8
I0
ssI1401
(dp1743
g3
I0
sg4
I0
sg5
I0
sg6
I0
sg7
I0
sg8
I0
ssI1402
(dp1744
g3
I0
sg4
I0
sg5
I0
sg6
I0
sg7
I0
sg8
I0
ssI1403
(dp1745
g3
I0
sg4
I0
sg5
I0
sg6
I0
sg7
I0
sg8
I0
ssI901
(dp1746
g3
I0
sg4
I0
sg5
I0
sg6
I0
sg7
I0
sg8
I0
ssI902
(dp1747
g3
I0
sg4
I0
sg5
I0
sg6
I0
sg7
I0
sg8
I0
ssI903
(dp1748
g3
I0
sg4
I0
sg5
I0
sg6
I0
sg7
I0
sg8
I0
ssI401
(dp1749
g3
I0
sg4
I0
sg5
I0
sg6
I0
sg7
I0
sg8
I0
ssI402
(dp1750
g3
I0
sg4
I0
sg5
I0
sg6
I0
sg7
I0
sg8
I0
ssI403
(dp1751
g3
I0
sg4
I0
sg5
I0
sg6
I0
sg7
I0
sg8
I0
ssI1701
(dp1752
g3
I0
sg4
I0
sg5
I0
sg6
I0
sg7
I0
sg8
I0
ssI1702
(dp1753
g3
I0
sg4
I0
sg5
I0
sg6
I0
sg7
I0
sg8
I0
ssI1703
(dp1754
g3
I0
sg4
I0
sg5
I0
sg6
I0
sg7
I0
sg8
I0
ssI1201
(dp1755
g3
I0
sg4
I0
sg5
I0
sg6
I0
sg7
I0
sg8
I0
ssI1202
(dp1756
g3
I0
sg4
I0
sg5
I0
sg6
I0
sg7
I0
sg8
I0
ssI1203
(dp1757
g3
I0
sg4
I0
sg5
I0
sg6
I0
sg7
I0
sg8
I0
ssI701
(dp1758
g3
I0
sg4
I0
sg5
I0
sg6
I0
sg7
I0
sg8
I0
ssI702
(dp1759
g3
I0
sg4
I0
sg5
I0
sg6
I0
sg7
I0
sg8
I0
ssI703
(dp1760
g3
I0
sg4
I0
sg5
I0
sg6
I0
sg7
I0
sg8
I0
ssI201
(dp1761
g3
I0
sg4
I0
sg5
I0
sg6
I0
sg7
I0
sg8
I0
ssI202
(dp1762
g3
I0
sg4
I0
sg5
I0
sg6
I0
sg7
I0
sg8
I0
ssI203
(dp1763
g3
I0
sg4
I0
sg5
I0
sg6
I0
sg7
I0
sg8
I0
ssI2001
(dp1764
g3
I0
sg4
I0
sg5
I0
sg6
I0
sg7
I0
sg8
I0
ssI2002
(dp1765
g3
I0
sg4
I0
sg5
I0
sg6
I0
sg7
I0
sg8
I0
ssI2003
(dp1766
g3
I0
sg4
I0
sg5
I0
sg6
I0
sg7
I0
sg8
I0
ssI1501
(dp1767
g3
I0
sg4
I0
sg5
I0
sg6
I0
sg7
I0
sg8
I0
ssI1502
(dp1768
g3
I0
sg4
I0
sg5
I0
sg6
I0
sg7
I0
sg8
I0
ssI1503
(dp1769
g3
I0
sg4
I0
sg5
I0
sg6
I0
sg7
I0
sg8
I0
ssI1001
(dp1770
g3
I0
sg4
I0
sg5
I0
sg6
I0
sg7
I0
sg8
I0
ssI1002
(dp1771
g3
I0
sg4
I0
sg5
I0
sg6
I0
sg7
I0
sg8
I0
ssI1003
(dp1772
g3
I0
sg4
I0
sg5
I0
sg6
I0
sg7
I0
sg8
I0
ssI501
(dp1773
g3
I0
sg4
I0
sg5
I0
sg6
I0
sg7
I0
sg8
I0
ssI502
(dp1774
g3
I0
sg4
I0
sg5
I0
sg6
I0
sg7
I0
sg8
I0
ssI503
(dp1775
g3
I0
sg4
I0
sg5
I0
sg6
I0
sg7
I0
sg8
I0
sssI30
(dp1776
I1801
(dp1777
g3
I0
sg4
I0
sg5
I0
sg6
I0
sg7
I0
sg8
I0
ssI1802
(dp1778
g3
I0
sg4
I0
sg5
I0
sg6
I0
sg7
I0
sg8
I0
ssI1803
(dp1779
g3
I0
sg4
I0
sg5
I0
sg6
I0
sg7
I0
sg8
I0
ssI1301
(dp1780
g3
I0
sg4
I0
sg5
I0
sg6
I0
sg7
I0
sg8
I0
ssI1302
(dp1781
g3
I0
sg4
I0
sg5
I0
sg6
I0
sg7
I0
sg8
I0
ssI1303
(dp1782
g3
I0
sg4
I0
sg5
I0
sg6
I0
sg7
I0
sg8
I0
ssI801
(dp1783
g3
I0
sg4
I0
sg5
I0
sg6
I0
sg7
I0
sg8
I0
ssI802
(dp1784
g3
I0
sg4
I0
sg5
I0
sg6
I0
sg7
I0
sg8
I0
ssI803
(dp1785
g3
I0
sg4
I0
sg5
I0
sg6
I0
sg7
I0
sg8
I0
ssI301
(dp1786
g3
I0
sg4
I0
sg5
I0
sg6
I0
sg7
I0
sg8
I0
ssI302
(dp1787
g3
I0
sg4
I0
sg5
I0
sg6
I0
sg7
I0
sg8
I0
ssI303
(dp1788
g3
I0
sg4
I0
sg5
I0
sg6
I0
sg7
I0
sg8
I0
ssI1601
(dp1789
g3
I0
sg4
I0
sg5
I0
sg6
I0
sg7
I0
sg8
I0
ssI1602
(dp1790
g3
I0
sg4
I0
sg5
I0
sg6
I0
sg7
I0
sg8
I0
ssI1603
(dp1791
g3
I0
sg4
I0
sg5
I0
sg6
I0
sg7
I0
sg8
I0
ssI1101
(dp1792
g3
I0
sg4
I0
sg5
I0
sg6
I0
sg7
I0
sg8
I0
ssI1102
(dp1793
g3
I0
sg4
I0
sg5
I0
sg6
I0
sg7
I0
sg8
I0
ssI1103
(dp1794
g3
I0
sg4
I0
sg5
I0
sg6
I0
sg7
I0
sg8
I0
ssI601
(dp1795
g3
I0
sg4
I0
sg5
I0
sg6
I0
sg7
I0
sg8
I0
ssI602
(dp1796
g3
I0
sg4
I0
sg5
I0
sg6
I0
sg7
I0
sg8
I0
ssI603
(dp1797
g3
I0
sg4
I0
sg5
I0
sg6
I0
sg7
I0
sg8
I0
ssI101
(dp1798
g3
I0
sg4
I0
sg5
I0
sg6
I0
sg7
I0
sg8
I0
ssI102
(dp1799
g3
I0
sg4
I0
sg5
I0
sg6
I0
sg7
I0
sg8
I0
ssI103
(dp1800
g3
I0
sg4
I0
sg5
I0
sg6
I0
sg7
I0
sg8
I0
ssI1901
(dp1801
g3
I0
sg4
I0
sg5
I0
sg6
I0
sg7
I0
sg8
I0
ssI1902
(dp1802
g3
I0
sg4
I0
sg5
I0
sg6
I0
sg7
I0
sg8
I0
ssI1903
(dp1803
g3
I0
sg4
I0
sg5
I0
sg6
I0
sg7
I0
sg8
I0
ssI1401
(dp1804
g3
I0
sg4
I0
sg5
I0
sg6
I0
sg7
I0
sg8
I0
ssI1402
(dp1805
g3
I0
sg4
I0
sg5
I0
sg6
I0
sg7
I0
sg8
I0
ssI1403
(dp1806
g3
I0
sg4
I0
sg5
I0
sg6
I0
sg7
I0
sg8
I0
ssI901
(dp1807
g3
I0
sg4
I0
sg5
I0
sg6
I0
sg7
I0
sg8
I0
ssI902
(dp1808
g3
I0
sg4
I0
sg5
I0
sg6
I0
sg7
I0
sg8
I0
ssI903
(dp1809
g3
I0
sg4
I0
sg5
I0
sg6
I0
sg7
I0
sg8
I0
ssI401
(dp1810
g3
I0
sg4
I0
sg5
I0
sg6
I0
sg7
I0
sg8
I0
ssI402
(dp1811
g3
I0
sg4
I0
sg5
I0
sg6
I0
sg7
I0
sg8
I0
ssI403
(dp1812
g3
I0
sg4
I0
sg5
I0
sg6
I0
sg7
I0
sg8
I0
ssI1701
(dp1813
g3
I0
sg4
I0
sg5
I0
sg6
I0
sg7
I0
sg8
I0
ssI1702
(dp1814
g3
I0
sg4
I0
sg5
I0
sg6
I0
sg7
I0
sg8
I0
ssI1703
(dp1815
g3
I0
sg4
I0
sg5
I0
sg6
I0
sg7
I0
sg8
I0
ssI1201
(dp1816
g3
I0
sg4
I0
sg5
I0
sg6
I0
sg7
I0
sg8
I0
ssI1202
(dp1817
g3
I0
sg4
I0
sg5
I0
sg6
I0
sg7
I0
sg8
I0
ssI1203
(dp1818
g3
I0
sg4
I0
sg5
I0
sg6
I0
sg7
I0
sg8
I0
ssI701
(dp1819
g3
I0
sg4
I0
sg5
I0
sg6
I0
sg7
I0
sg8
I0
ssI702
(dp1820
g3
I0
sg4
I0
sg5
I0
sg6
I0
sg7
I0
sg8
I0
ssI703
(dp1821
g3
I0
sg4
I0
sg5
I0
sg6
I0
sg7
I0
sg8
I0
ssI201
(dp1822
g3
I0
sg4
I0
sg5
I0
sg6
I0
sg7
I0
sg8
I0
ssI202
(dp1823
g3
I0
sg4
I0
sg5
I0
sg6
I0
sg7
I0
sg8
I0
ssI203
(dp1824
g3
I0
sg4
I0
sg5
I0
sg6
I0
sg7
I0
sg8
I0
ssI2001
(dp1825
g3
I0
sg4
I0
sg5
I0
sg6
I0
sg7
I0
sg8
I0
ssI2002
(dp1826
g3
I0
sg4
I0
sg5
I0
sg6
I0
sg7
I0
sg8
I0
ssI2003
(dp1827
g3
I0
sg4
I0
sg5
I0
sg6
I0
sg7
I0
sg8
I0
ssI1501
(dp1828
g3
I0
sg4
I0
sg5
I0
sg6
I0
sg7
I0
sg8
I0
ssI1502
(dp1829
g3
I0
sg4
I0
sg5
I0
sg6
I0
sg7
I0
sg8
I0
ssI1503
(dp1830
g3
I0
sg4
I0
sg5
I0
sg6
I0
sg7
I0
sg8
I0
ssI1001
(dp1831
g3
I0
sg4
I0
sg5
I0
sg6
I0
sg7
I0
sg8
I0
ssI1002
(dp1832
g3
I0
sg4
I0
sg5
I0
sg6
I0
sg7
I0
sg8
I0
ssI1003
(dp1833
g3
I0
sg4
I0
sg5
I0
sg6
I0
sg7
I0
sg8
I0
ssI501
(dp1834
g3
I0
sg4
I0
sg5
I0
sg6
I0
sg7
I0
sg8
I0
ssI502
(dp1835
g3
I0
sg4
I0
sg5
I0
sg6
I0
sg7
I0
sg8
I0
ssI503
(dp1836
g3
I0
sg4
I0
sg5
I0
sg6
I0
sg7
I0
sg8
I0
sssI31
(dp1837
I1801
(dp1838
g3
I0
sg4
I0
sg5
I0
sg6
I0
sg7
I0
sg8
I0
ssI1802
(dp1839
g3
I0
sg4
I0
sg5
I0
sg6
I0
sg7
I0
sg8
I0
ssI1803
(dp1840
g3
I0
sg4
I0
sg5
I0
sg6
I0
sg7
I0
sg8
I0
ssI1301
(dp1841
g3
I0
sg4
I0
sg5
I0
sg6
I0
sg7
I0
sg8
I0
ssI1302
(dp1842
g3
I0
sg4
I0
sg5
I0
sg6
I0
sg7
I0
sg8
I0
ssI1303
(dp1843
g3
I0
sg4
I0
sg5
I0
sg6
I0
sg7
I0
sg8
I0
ssI801
(dp1844
g3
I0
sg4
I0
sg5
I0
sg6
I0
sg7
I0
sg8
I0
ssI802
(dp1845
g3
I0
sg4
I0
sg5
I0
sg6
I0
sg7
I0
sg8
I0
ssI803
(dp1846
g3
I0
sg4
I0
sg5
I0
sg6
I0
sg7
I0
sg8
I0
ssI301
(dp1847
g3
I0
sg4
I0
sg5
I0
sg6
I0
sg7
I0
sg8
I0
ssI302
(dp1848
g3
I0
sg4
I0
sg5
I0
sg6
I0
sg7
I0
sg8
I0
ssI303
(dp1849
g3
I0
sg4
I0
sg5
I0
sg6
I0
sg7
I0
sg8
I0
ssI1601
(dp1850
g3
I0
sg4
I0
sg5
I0
sg6
I0
sg7
I0
sg8
I0
ssI1602
(dp1851
g3
I0
sg4
I0
sg5
I0
sg6
I0
sg7
I0
sg8
I0
ssI1603
(dp1852
g3
I0
sg4
I0
sg5
I0
sg6
I0
sg7
I0
sg8
I0
ssI1101
(dp1853
g3
I0
sg4
I0
sg5
I0
sg6
I0
sg7
I0
sg8
I0
ssI1102
(dp1854
g3
I0
sg4
I0
sg5
I0
sg6
I0
sg7
I0
sg8
I0
ssI1103
(dp1855
g3
I0
sg4
I0
sg5
I0
sg6
I0
sg7
I0
sg8
I0
ssI601
(dp1856
g3
I0
sg4
I0
sg5
I0
sg6
I0
sg7
I0
sg8
I0
ssI602
(dp1857
g3
I0
sg4
I0
sg5
I0
sg6
I0
sg7
I0
sg8
I0
ssI603
(dp1858
g3
I0
sg4
I0
sg5
I0
sg6
I0
sg7
I0
sg8
I0
ssI101
(dp1859
g3
I0
sg4
I0
sg5
I0
sg6
I0
sg7
I0
sg8
I0
ssI102
(dp1860
g3
I0
sg4
I0
sg5
I0
sg6
I0
sg7
I0
sg8
I0
ssI103
(dp1861
g3
I0
sg4
I0
sg5
I0
sg6
I0
sg7
I0
sg8
I0
ssI1901
(dp1862
g3
I0
sg4
I0
sg5
I0
sg6
I0
sg7
I0
sg8
I0
ssI1902
(dp1863
g3
I0
sg4
I0
sg5
I0
sg6
I0
sg7
I0
sg8
I0
ssI1903
(dp1864
g3
I0
sg4
I0
sg5
I0
sg6
I0
sg7
I0
sg8
I0
ssI1401
(dp1865
g3
I0
sg4
I0
sg5
I0
sg6
I0
sg7
I0
sg8
I0
ssI1402
(dp1866
g3
I0
sg4
I0
sg5
I0
sg6
I0
sg7
I0
sg8
I0
ssI1403
(dp1867
g3
I0
sg4
I0
sg5
I0
sg6
I0
sg7
I0
sg8
I0
ssI901
(dp1868
g3
I0
sg4
I0
sg5
I0
sg6
I0
sg7
I0
sg8
I0
ssI902
(dp1869
g3
I0
sg4
I0
sg5
I0
sg6
I0
sg7
I0
sg8
I0
ssI903
(dp1870
g3
I0
sg4
I0
sg5
I0
sg6
I0
sg7
I0
sg8
I0
ssI401
(dp1871
g3
I0
sg4
I0
sg5
I0
sg6
I0
sg7
I0
sg8
I0
ssI402
(dp1872
g3
I0
sg4
I0
sg5
I0
sg6
I0
sg7
I0
sg8
I0
ssI403
(dp1873
g3
I0
sg4
I0
sg5
I0
sg6
I0
sg7
I0
sg8
I0
ssI1701
(dp1874
g3
I0
sg4
I0
sg5
I0
sg6
I0
sg7
I0
sg8
I0
ssI1702
(dp1875
g3
I0
sg4
I0
sg5
I0
sg6
I0
sg7
I0
sg8
I0
ssI1703
(dp1876
g3
I0
sg4
I0
sg5
I0
sg6
I0
sg7
I0
sg8
I0
ssI1201
(dp1877
g3
I0
sg4
I0
sg5
I0
sg6
I0
sg7
I0
sg8
I0
ssI1202
(dp1878
g3
I0
sg4
I0
sg5
I0
sg6
I0
sg7
I0
sg8
I0
ssI1203
(dp1879
g3
I0
sg4
I0
sg5
I0
sg6
I0
sg7
I0
sg8
I0
ssI701
(dp1880
g3
I0
sg4
I0
sg5
I0
sg6
I0
sg7
I0
sg8
I0
ssI702
(dp1881
g3
I0
sg4
I0
sg5
I0
sg6
I0
sg7
I0
sg8
I0
ssI703
(dp1882
g3
I0
sg4
I0
sg5
I0
sg6
I0
sg7
I0
sg8
I0
ssI201
(dp1883
g3
I0
sg4
I0
sg5
I0
sg6
I0
sg7
I0
sg8
I0
ssI202
(dp1884
g3
I0
sg4
I0
sg5
I0
sg6
I0
sg7
I0
sg8
I0
ssI203
(dp1885
g3
I0
sg4
I0
sg5
I0
sg6
I0
sg7
I0
sg8
I0
ssI2001
(dp1886
g3
I0
sg4
I0
sg5
I0
sg6
I0
sg7
I0
sg8
I0
ssI2002
(dp1887
g3
I0
sg4
I0
sg5
I0
sg6
I0
sg7
I0
sg8
I0
ssI2003
(dp1888
g3
I0
sg4
I0
sg5
I0
sg6
I0
sg7
I0
sg8
I0
ssI1501
(dp1889
g3
I0
sg4
I0
sg5
I0
sg6
I0
sg7
I0
sg8
I0
ssI1502
(dp1890
g3
I0
sg4
I0
sg5
I0
sg6
I0
sg7
I0
sg8
I0
ssI1503
(dp1891
g3
I0
sg4
I0
sg5
I0
sg6
I0
sg7
I0
sg8
I0
ssI1001
(dp1892
g3
I0
sg4
I0
sg5
I0
sg6
I0
sg7
I0
sg8
I0
ssI1002
(dp1893
g3
I0
sg4
I0
sg5
I0
sg6
I0
sg7
I0
sg8
I0
ssI1003
(dp1894
g3
I0
sg4
I0
sg5
I0
sg6
I0
sg7
I0
sg8
I0
ssI501
(dp1895
g3
I0
sg4
I0
sg5
I0
sg6
I0
sg7
I0
sg8
I0
ssI502
(dp1896
g3
I0
sg4
I0
sg5
I0
sg6
I0
sg7
I0
sg8
I0
ssI503
(dp1897
g3
I0
sg4
I0
sg5
I0
sg6
I0
sg7
I0
sg8
I0
sssI32
(dp1898
I1801
(dp1899
g3
I0
sg4
I0
sg5
I0
sg6
I0
sg7
I0
sg8
I0
ssI1802
(dp1900
g3
I0
sg4
I0
sg5
I0
sg6
I0
sg7
I0
sg8
I0
ssI1803
(dp1901
g3
I0
sg4
I0
sg5
I0
sg6
I0
sg7
I0
sg8
I0
ssI1301
(dp1902
g3
I0
sg4
I0
sg5
I0
sg6
I0
sg7
I0
sg8
I0
ssI1302
(dp1903
g3
I0
sg4
I0
sg5
I0
sg6
I0
sg7
I0
sg8
I0
ssI1303
(dp1904
g3
I0
sg4
I0
sg5
I0
sg6
I0
sg7
I0
sg8
I0
ssI801
(dp1905
g3
I0
sg4
I0
sg5
I0
sg6
I0
sg7
I0
sg8
I0
ssI802
(dp1906
g3
I0
sg4
I0
sg5
I0
sg6
I0
sg7
I0
sg8
I0
ssI803
(dp1907
g3
I0
sg4
I0
sg5
I0
sg6
I0
sg7
I0
sg8
I0
ssI301
(dp1908
g3
I0
sg4
I0
sg5
I0
sg6
I0
sg7
I0
sg8
I0
ssI302
(dp1909
g3
I0
sg4
I0
sg5
I0
sg6
I0
sg7
I0
sg8
I0
ssI303
(dp1910
g3
I0
sg4
I0
sg5
I0
sg6
I0
sg7
I0
sg8
I0
ssI1601
(dp1911
g3
I0
sg4
I0
sg5
I0
sg6
I0
sg7
I0
sg8
I0
ssI1602
(dp1912
g3
I0
sg4
I0
sg5
I0
sg6
I0
sg7
I0
sg8
I0
ssI1603
(dp1913
g3
I0
sg4
I0
sg5
I0
sg6
I0
sg7
I0
sg8
I0
ssI1101
(dp1914
g3
I0
sg4
I0
sg5
I0
sg6
I0
sg7
I0
sg8
I0
ssI1102
(dp1915
g3
I0
sg4
I0
sg5
I0
sg6
I0
sg7
I0
sg8
I0
ssI1103
(dp1916
g3
I0
sg4
I0
sg5
I0
sg6
I0
sg7
I0
sg8
I0
ssI601
(dp1917
g3
I0
sg4
I0
sg5
I0
sg6
I0
sg7
I0
sg8
I0
ssI602
(dp1918
g3
I0
sg4
I0
sg5
I0
sg6
I0
sg7
I0
sg8
I0
ssI603
(dp1919
g3
I0
sg4
I0
sg5
I0
sg6
I0
sg7
I0
sg8
I0
ssI101
(dp1920
g3
I0
sg4
I0
sg5
I0
sg6
I0
sg7
I0
sg8
I0
ssI102
(dp1921
g3
I0
sg4
I0
sg5
I0
sg6
I0
sg7
I0
sg8
I0
ssI103
(dp1922
g3
I0
sg4
I0
sg5
I0
sg6
I0
sg7
I0
sg8
I0
ssI1901
(dp1923
g3
I0
sg4
I0
sg5
I0
sg6
I0
sg7
I0
sg8
I0
ssI1902
(dp1924
g3
I0
sg4
I0
sg5
I0
sg6
I0
sg7
I0
sg8
I0
ssI1903
(dp1925
g3
I0
sg4
I0
sg5
I0
sg6
I0
sg7
I0
sg8
I0
ssI1401
(dp1926
g3
I0
sg4
I0
sg5
I0
sg6
I0
sg7
I0
sg8
I0
ssI1402
(dp1927
g3
I0
sg4
I0
sg5
I0
sg6
I0
sg7
I0
sg8
I0
ssI1403
(dp1928
g3
I0
sg4
I0
sg5
I0
sg6
I0
sg7
I0
sg8
I0
ssI901
(dp1929
g3
I0
sg4
I0
sg5
I0
sg6
I0
sg7
I0
sg8
I0
ssI902
(dp1930
g3
I0
sg4
I0
sg5
I0
sg6
I0
sg7
I0
sg8
I0
ssI903
(dp1931
g3
I0
sg4
I0
sg5
I0
sg6
I0
sg7
I0
sg8
I0
ssI401
(dp1932
g3
I0
sg4
I0
sg5
I0
sg6
I0
sg7
I0
sg8
I0
ssI402
(dp1933
g3
I0
sg4
I0
sg5
I0
sg6
I0
sg7
I0
sg8
I0
ssI403
(dp1934
g3
I0
sg4
I0
sg5
I0
sg6
I0
sg7
I0
sg8
I0
ssI1701
(dp1935
g3
I0
sg4
I0
sg5
I0
sg6
I0
sg7
I0
sg8
I0
ssI1702
(dp1936
g3
I0
sg4
I0
sg5
I0
sg6
I0
sg7
I0
sg8
I0
ssI1703
(dp1937
g3
I0
sg4
I0
sg5
I0
sg6
I0
sg7
I0
sg8
I0
ssI1201
(dp1938
g3
I0
sg4
I0
sg5
I0
sg6
I0
sg7
I0
sg8
I0
ssI1202
(dp1939
g3
I0
sg4
I0
sg5
I0
sg6
I0
sg7
I0
sg8
I0
ssI1203
(dp1940
g3
I0
sg4
I0
sg5
I0
sg6
I0
sg7
I0
sg8
I0
ssI701
(dp1941
g3
I0
sg4
I0
sg5
I0
sg6
I0
sg7
I0
sg8
I0
ssI702
(dp1942
g3
I0
sg4
I0
sg5
I0
sg6
I0
sg7
I0
sg8
I0
ssI703
(dp1943
g3
I0
sg4
I0
sg5
I0
sg6
I0
sg7
I0
sg8
I0
ssI201
(dp1944
g3
I0
sg4
I0
sg5
I0
sg6
I0
sg7
I0
sg8
I0
ssI202
(dp1945
g3
I0
sg4
I0
sg5
I0
sg6
I0
sg7
I0
sg8
I0
ssI203
(dp1946
g3
I0
sg4
I0
sg5
I0
sg6
I0
sg7
I0
sg8
I0
ssI2001
(dp1947
g3
I0
sg4
I0
sg5
I0
sg6
I0
sg7
I0
sg8
I0
ssI2002
(dp1948
g3
I0
sg4
I0
sg5
I0
sg6
I0
sg7
I0
sg8
I0
ssI2003
(dp1949
g3
I0
sg4
I0
sg5
I0
sg6
I0
sg7
I0
sg8
I0
ssI1501
(dp1950
g3
I0
sg4
I0
sg5
I0
sg6
I0
sg7
I0
sg8
I0
ssI1502
(dp1951
g3
I0
sg4
I0
sg5
I0
sg6
I0
sg7
I0
sg8
I0
ssI1503
(dp1952
g3
I0
sg4
I0
sg5
I0
sg6
I0
sg7
I0
sg8
I0
ssI1001
(dp1953
g3
I0
sg4
I0
sg5
I0
sg6
I0
sg7
I0
sg8
I0
ssI1002
(dp1954
g3
I0
sg4
I0
sg5
I0
sg6
I0
sg7
I0
sg8
I0
ssI1003
(dp1955
g3
I0
sg4
I0
sg5
I0
sg6
I0
sg7
I0
sg8
I0
ssI501
(dp1956
g3
I0
sg4
I0
sg5
I0
sg6
I0
sg7
I0
sg8
I0
ssI502
(dp1957
g3
I0
sg4
I0
sg5
I0
sg6
I0
sg7
I0
sg8
I0
ssI503
(dp1958
g3
I0
sg4
I0
sg5
I0
sg6
I0
sg7
I0
sg8
I0
sssI33
(dp1959
I1801
(dp1960
g3
I0
sg4
I0
sg5
I0
sg6
I0
sg7
I0
sg8
I0
ssI1802
(dp1961
g3
I0
sg4
I0
sg5
I0
sg6
I0
sg7
I0
sg8
I0
ssI1803
(dp1962
g3
I0
sg4
I0
sg5
I0
sg6
I0
sg7
I0
sg8
I0
ssI1301
(dp1963
g3
I0
sg4
I0
sg5
I0
sg6
I0
sg7
I0
sg8
I0
ssI1302
(dp1964
g3
I0
sg4
I0
sg5
I0
sg6
I0
sg7
I0
sg8
I0
ssI1303
(dp1965
g3
I0
sg4
I0
sg5
I0
sg6
I0
sg7
I0
sg8
I0
ssI801
(dp1966
g3
I0
sg4
I0
sg5
I0
sg6
I0
sg7
I0
sg8
I0
ssI802
(dp1967
g3
I0
sg4
I0
sg5
I0
sg6
I0
sg7
I0
sg8
I0
ssI803
(dp1968
g3
I0
sg4
I0
sg5
I0
sg6
I0
sg7
I0
sg8
I0
ssI301
(dp1969
g3
I0
sg4
I0
sg5
I0
sg6
I0
sg7
I0
sg8
I0
ssI302
(dp1970
g3
I0
sg4
I0
sg5
I0
sg6
I0
sg7
I0
sg8
I0
ssI303
(dp1971
g3
I0
sg4
I0
sg5
I0
sg6
I0
sg7
I0
sg8
I0
ssI1601
(dp1972
g3
I0
sg4
I0
sg5
I0
sg6
I0
sg7
I0
sg8
I0
ssI1602
(dp1973
g3
I0
sg4
I0
sg5
I0
sg6
I0
sg7
I0
sg8
I0
ssI1603
(dp1974
g3
I0
sg4
I0
sg5
I0
sg6
I0
sg7
I0
sg8
I0
ssI1101
(dp1975
g3
I0
sg4
I0
sg5
I0
sg6
I0
sg7
I0
sg8
I0
ssI1102
(dp1976
g3
I0
sg4
I0
sg5
I0
sg6
I0
sg7
I0
sg8
I0
ssI1103
(dp1977
g3
I0
sg4
I0
sg5
I0
sg6
I0
sg7
I0
sg8
I0
ssI601
(dp1978
g3
I0
sg4
I0
sg5
I0
sg6
I0
sg7
I0
sg8
I0
ssI602
(dp1979
g3
I0
sg4
I0
sg5
I0
sg6
I0
sg7
I0
sg8
I0
ssI603
(dp1980
g3
I0
sg4
I0
sg5
I0
sg6
I0
sg7
I0
sg8
I0
ssI101
(dp1981
g3
I0
sg4
I0
sg5
I0
sg6
I0
sg7
I0
sg8
I0
ssI102
(dp1982
g3
I0
sg4
I0
sg5
I0
sg6
I0
sg7
I0
sg8
I0
ssI103
(dp1983
g3
I0
sg4
I0
sg5
I0
sg6
I0
sg7
I0
sg8
I0
ssI1901
(dp1984
g3
I0
sg4
I0
sg5
I0
sg6
I0
sg7
I0
sg8
I0
ssI1902
(dp1985
g3
I0
sg4
I0
sg5
I0
sg6
I0
sg7
I0
sg8
I0
ssI1903
(dp1986
g3
I0
sg4
I0
sg5
I0
sg6
I0
sg7
I0
sg8
I0
ssI1401
(dp1987
g3
I0
sg4
I0
sg5
I0
sg6
I0
sg7
I0
sg8
I0
ssI1402
(dp1988
g3
I0
sg4
I0
sg5
I0
sg6
I0
sg7
I0
sg8
I0
ssI1403
(dp1989
g3
I0
sg4
I0
sg5
I0
sg6
I0
sg7
I0
sg8
I0
ssI901
(dp1990
g3
I0
sg4
I0
sg5
I0
sg6
I0
sg7
I0
sg8
I0
ssI902
(dp1991
g3
I0
sg4
I0
sg5
I0
sg6
I0
sg7
I0
sg8
I0
ssI903
(dp1992
g3
I0
sg4
I0
sg5
I0
sg6
I0
sg7
I0
sg8
I0
ssI401
(dp1993
g3
I0
sg4
I0
sg5
I0
sg6
I0
sg7
I0
sg8
I0
ssI402
(dp1994
g3
I0
sg4
I0
sg5
I0
sg6
I0
sg7
I0
sg8
I0
ssI403
(dp1995
g3
I0
sg4
I0
sg5
I0
sg6
I0
sg7
I0
sg8
I0
ssI1701
(dp1996
g3
I0
sg4
I0
sg5
I0
sg6
I0
sg7
I0
sg8
I0
ssI1702
(dp1997
g3
I0
sg4
I0
sg5
I0
sg6
I0
sg7
I0
sg8
I0
ssI1703
(dp1998
g3
I0
sg4
I0
sg5
I0
sg6
I0
sg7
I0
sg8
I0
ssI1201
(dp1999
g3
I0
sg4
I0
sg5
I0
sg6
I0
sg7
I0
sg8
I0
ssI1202
(dp2000
g3
I0
sg4
I0
sg5
I0
sg6
I0
sg7
I0
sg8
I0
ssI1203
(dp2001
g3
I0
sg4
I0
sg5
I0
sg6
I0
sg7
I0
sg8
I0
ssI701
(dp2002
g3
I0
sg4
I0
sg5
I0
sg6
I0
sg7
I0
sg8
I0
ssI702
(dp2003
g3
I0
sg4
I0
sg5
I0
sg6
I0
sg7
I0
sg8
I0
ssI703
(dp2004
g3
I0
sg4
I0
sg5
I0
sg6
I0
sg7
I0
sg8
I0
ssI201
(dp2005
g3
I0
sg4
I0
sg5
I0
sg6
I0
sg7
I0
sg8
I0
ssI202
(dp2006
g3
I0
sg4
I0
sg5
I0
sg6
I0
sg7
I0
sg8
I0
ssI203
(dp2007
g3
I0
sg4
I0
sg5
I0
sg6
I0
sg7
I0
sg8
I0
ssI2001
(dp2008
g3
I0
sg4
I0
sg5
I0
sg6
I0
sg7
I0
sg8
I0
ssI2002
(dp2009
g3
I0
sg4
I0
sg5
I0
sg6
I0
sg7
I0
sg8
I0
ssI2003
(dp2010
g3
I0
sg4
I0
sg5
I0
sg6
I0
sg7
I0
sg8
I0
ssI1501
(dp2011
g3
I0
sg4
I0
sg5
I0
sg6
I0
sg7
I0
sg8
I0
ssI1502
(dp2012
g3
I0
sg4
I0
sg5
I0
sg6
I0
sg7
I0
sg8
I0
ssI1503
(dp2013
g3
I0
sg4
I0
sg5
I0
sg6
I0
sg7
I0
sg8
I0
ssI1001
(dp2014
g3
I0
sg4
I0
sg5
I0
sg6
I0
sg7
I0
sg8
I0
ssI1002
(dp2015
g3
I0
sg4
I0
sg5
I0
sg6
I0
sg7
I0
sg8
I0
ssI1003
(dp2016
g3
I0
sg4
I0
sg5
I0
sg6
I0
sg7
I0
sg8
I0
ssI501
(dp2017
g3
I0
sg4
I0
sg5
I0
sg6
I0
sg7
I0
sg8
I0
ssI502
(dp2018
g3
I0
sg4
I0
sg5
I0
sg6
I0
sg7
I0
sg8
I0
ssI503
(dp2019
g3
I0
sg4
I0
sg5
I0
sg6
I0
sg7
I0
sg8
I0
sssI34
(dp2020
I1801
(dp2021
g3
I0
sg4
I0
sg5
I0
sg6
I0
sg7
I0
sg8
I0
ssI1802
(dp2022
g3
I0
sg4
I0
sg5
I0
sg6
I0
sg7
I0
sg8
I0
ssI1803
(dp2023
g3
I0
sg4
I0
sg5
I0
sg6
I0
sg7
I0
sg8
I0
ssI1301
(dp2024
g3
I0
sg4
I0
sg5
I0
sg6
I0
sg7
I0
sg8
I0
ssI1302
(dp2025
g3
I0
sg4
I0
sg5
I0
sg6
I0
sg7
I0
sg8
I0
ssI1303
(dp2026
g3
I0
sg4
I0
sg5
I0
sg6
I0
sg7
I0
sg8
I0
ssI801
(dp2027
g3
I0
sg4
I0
sg5
I0
sg6
I0
sg7
I0
sg8
I0
ssI802
(dp2028
g3
I0
sg4
I0
sg5
I0
sg6
I0
sg7
I0
sg8
I0
ssI803
(dp2029
g3
I0
sg4
I0
sg5
I0
sg6
I0
sg7
I0
sg8
I0
ssI301
(dp2030
g3
I0
sg4
I0
sg5
I0
sg6
I0
sg7
I0
sg8
I0
ssI302
(dp2031
g3
I0
sg4
I0
sg5
I0
sg6
I0
sg7
I0
sg8
I0
ssI303
(dp2032
g3
I0
sg4
I0
sg5
I0
sg6
I0
sg7
I0
sg8
I0
ssI1601
(dp2033
g3
I0
sg4
I0
sg5
I0
sg6
I0
sg7
I0
sg8
I0
ssI1602
(dp2034
g3
I0
sg4
I0
sg5
I0
sg6
I0
sg7
I0
sg8
I0
ssI1603
(dp2035
g3
I0
sg4
I0
sg5
I0
sg6
I0
sg7
I0
sg8
I0
ssI1101
(dp2036
g3
I0
sg4
I0
sg5
I0
sg6
I0
sg7
I0
sg8
I0
ssI1102
(dp2037
g3
I0
sg4
I0
sg5
I0
sg6
I0
sg7
I0
sg8
I0
ssI1103
(dp2038
g3
I0
sg4
I0
sg5
I0
sg6
I0
sg7
I0
sg8
I0
ssI601
(dp2039
g3
I0
sg4
I0
sg5
I0
sg6
I0
sg7
I0
sg8
I0
ssI602
(dp2040
g3
I0
sg4
I0
sg5
I0
sg6
I0
sg7
I0
sg8
I0
ssI603
(dp2041
g3
I0
sg4
I0
sg5
I0
sg6
I0
sg7
I0
sg8
I0
ssI101
(dp2042
g3
I0
sg4
I0
sg5
I0
sg6
I0
sg7
I0
sg8
I0
ssI102
(dp2043
g3
I0
sg4
I0
sg5
I0
sg6
I0
sg7
I0
sg8
I0
ssI103
(dp2044
g3
I0
sg4
I0
sg5
I0
sg6
I0
sg7
I0
sg8
I0
ssI1901
(dp2045
g3
I0
sg4
I0
sg5
I0
sg6
I0
sg7
I0
sg8
I0
ssI1902
(dp2046
g3
I0
sg4
I0
sg5
I0
sg6
I0
sg7
I0
sg8
I0
ssI1903
(dp2047
g3
I0
sg4
I0
sg5
I0
sg6
I0
sg7
I0
sg8
I0
ssI1401
(dp2048
g3
I0
sg4
I0
sg5
I0
sg6
I0
sg7
I0
sg8
I0
ssI1402
(dp2049
g3
I0
sg4
I0
sg5
I0
sg6
I0
sg7
I0
sg8
I0
ssI1403
(dp2050
g3
I0
sg4
I0
sg5
I0
sg6
I0
sg7
I0
sg8
I0
ssI901
(dp2051
g3
I0
sg4
I0
sg5
I0
sg6
I0
sg7
I0
sg8
I0
ssI902
(dp2052
g3
I0
sg4
I0
sg5
I0
sg6
I0
sg7
I0
sg8
I0
ssI903
(dp2053
g3
I0
sg4
I0
sg5
I0
sg6
I0
sg7
I0
sg8
I0
ssI401
(dp2054
g3
I0
sg4
I0
sg5
I0
sg6
I0
sg7
I0
sg8
I0
ssI402
(dp2055
g3
I0
sg4
I0
sg5
I0
sg6
I0
sg7
I0
sg8
I0
ssI403
(dp2056
g3
I0
sg4
I0
sg5
I0
sg6
I0
sg7
I0
sg8
I0
ssI1701
(dp2057
g3
I0
sg4
I0
sg5
I0
sg6
I0
sg7
I0
sg8
I0
ssI1702
(dp2058
g3
I0
sg4
I0
sg5
I0
sg6
I0
sg7
I0
sg8
I0
ssI1703
(dp2059
g3
I0
sg4
I0
sg5
I0
sg6
I0
sg7
I0
sg8
I0
ssI1201
(dp2060
g3
I0
sg4
I0
sg5
I0
sg6
I0
sg7
I0
sg8
I0
ssI1202
(dp2061
g3
I0
sg4
I0
sg5
I0
sg6
I0
sg7
I0
sg8
I0
ssI1203
(dp2062
g3
I0
sg4
I0
sg5
I0
sg6
I0
sg7
I0
sg8
I0
ssI701
(dp2063
g3
I0
sg4
I0
sg5
I0
sg6
I0
sg7
I0
sg8
I0
ssI702
(dp2064
g3
I0
sg4
I0
sg5
I0
sg6
I0
sg7
I0
sg8
I0
ssI703
(dp2065
g3
I0
sg4
I0
sg5
I0
sg6
I0
sg7
I0
sg8
I0
ssI201
(dp2066
g3
I0
sg4
I0
sg5
I0
sg6
I0
sg7
I0
sg8
I0
ssI202
(dp2067
g3
I0
sg4
I0
sg5
I0
sg6
I0
sg7
I0
sg8
I0
ssI203
(dp2068
g3
I0
sg4
I0
sg5
I0
sg6
I0
sg7
I0
sg8
I0
ssI2001
(dp2069
g3
I0
sg4
I0
sg5
I0
sg6
I0
sg7
I0
sg8
I0
ssI2002
(dp2070
g3
I0
sg4
I0
sg5
I0
sg6
I0
sg7
I0
sg8
I0
ssI2003
(dp2071
g3
I0
sg4
I0
sg5
I0
sg6
I0
sg7
I0
sg8
I0
ssI1501
(dp2072
g3
I0
sg4
I0
sg5
I0
sg6
I0
sg7
I0
sg8
I0
ssI1502
(dp2073
g3
I0
sg4
I0
sg5
I0
sg6
I0
sg7
I0
sg8
I0
ssI1503
(dp2074
g3
I0
sg4
I0
sg5
I0
sg6
I0
sg7
I0
sg8
I0
ssI1001
(dp2075
g3
I0
sg4
I0
sg5
I0
sg6
I0
sg7
I0
sg8
I0
ssI1002
(dp2076
g3
I0
sg4
I0
sg5
I0
sg6
I0
sg7
I0
sg8
I0
ssI1003
(dp2077
g3
I0
sg4
I0
sg5
I0
sg6
I0
sg7
I0
sg8
I0
ssI501
(dp2078
g3
I0
sg4
I0
sg5
I0
sg6
I0
sg7
I0
sg8
I0
ssI502
(dp2079
g3
I0
sg4
I0
sg5
I0
sg6
I0
sg7
I0
sg8
I0
ssI503
(dp2080
g3
I0
sg4
I0
sg5
I0
sg6
I0
sg7
I0
sg8
I0
sssI35
(dp2081
I1801
(dp2082
g3
I0
sg4
I0
sg5
I0
sg6
I0
sg7
I0
sg8
I0
ssI1802
(dp2083
g3
I0
sg4
I0
sg5
I0
sg6
I0
sg7
I0
sg8
I0
ssI1803
(dp2084
g3
I0
sg4
I0
sg5
I0
sg6
I0
sg7
I0
sg8
I0
ssI1301
(dp2085
g3
I0
sg4
I0
sg5
I0
sg6
I0
sg7
I0
sg8
I0
ssI1302
(dp2086
g3
I0
sg4
I0
sg5
I0
sg6
I0
sg7
I0
sg8
I0
ssI1303
(dp2087
g3
I0
sg4
I0
sg5
I0
sg6
I0
sg7
I0
sg8
I0
ssI801
(dp2088
g3
I0
sg4
I0
sg5
I0
sg6
I0
sg7
I0
sg8
I0
ssI802
(dp2089
g3
I0
sg4
I0
sg5
I0
sg6
I0
sg7
I0
sg8
I0
ssI803
(dp2090
g3
I0
sg4
I0
sg5
I0
sg6
I0
sg7
I0
sg8
I0
ssI301
(dp2091
g3
I0
sg4
I0
sg5
I0
sg6
I0
sg7
I0
sg8
I0
ssI302
(dp2092
g3
I0
sg4
I0
sg5
I0
sg6
I0
sg7
I0
sg8
I0
ssI303
(dp2093
g3
I0
sg4
I0
sg5
I0
sg6
I0
sg7
I0
sg8
I0
ssI1601
(dp2094
g3
I0
sg4
I0
sg5
I0
sg6
I0
sg7
I0
sg8
I0
ssI1602
(dp2095
g3
I0
sg4
I0
sg5
I0
sg6
I0
sg7
I0
sg8
I0
ssI1603
(dp2096
g3
I0
sg4
I0
sg5
I0
sg6
I0
sg7
I0
sg8
I0
ssI1101
(dp2097
g3
I0
sg4
I0
sg5
I0
sg6
I0
sg7
I0
sg8
I0
ssI1102
(dp2098
g3
I0
sg4
I0
sg5
I0
sg6
I0
sg7
I0
sg8
I0
ssI1103
(dp2099
g3
I0
sg4
I0
sg5
I0
sg6
I0
sg7
I0
sg8
I0
ssI601
(dp2100
g3
I0
sg4
I0
sg5
I0
sg6
I0
sg7
I0
sg8
I0
ssI602
(dp2101
g3
I0
sg4
I0
sg5
I0
sg6
I0
sg7
I0
sg8
I0
ssI603
(dp2102
g3
I0
sg4
I0
sg5
I0
sg6
I0
sg7
I0
sg8
I0
ssI101
(dp2103
g3
I0
sg4
I0
sg5
I0
sg6
I0
sg7
I0
sg8
I0
ssI102
(dp2104
g3
I0
sg4
I0
sg5
I0
sg6
I0
sg7
I0
sg8
I0
ssI103
(dp2105
g3
I0
sg4
I0
sg5
I0
sg6
I0
sg7
I0
sg8
I0
ssI1901
(dp2106
g3
I0
sg4
I0
sg5
I0
sg6
I0
sg7
I0
sg8
I0
ssI1902
(dp2107
g3
I0
sg4
I0
sg5
I0
sg6
I0
sg7
I0
sg8
I0
ssI1903
(dp2108
g3
I0
sg4
I0
sg5
I0
sg6
I0
sg7
I0
sg8
I0
ssI1401
(dp2109
g3
I0
sg4
I0
sg5
I0
sg6
I0
sg7
I0
sg8
I0
ssI1402
(dp2110
g3
I0
sg4
I0
sg5
I0
sg6
I0
sg7
I0
sg8
I0
ssI1403
(dp2111
g3
I0
sg4
I0
sg5
I0
sg6
I0
sg7
I0
sg8
I0
ssI901
(dp2112
g3
I0
sg4
I0
sg5
I0
sg6
I0
sg7
I0
sg8
I0
ssI902
(dp2113
g3
I0
sg4
I0
sg5
I0
sg6
I0
sg7
I0
sg8
I0
ssI903
(dp2114
g3
I0
sg4
I0
sg5
I0
sg6
I0
sg7
I0
sg8
I0
ssI401
(dp2115
g3
I0
sg4
I0
sg5
I0
sg6
I0
sg7
I0
sg8
I0
ssI402
(dp2116
g3
I0
sg4
I0
sg5
I0
sg6
I0
sg7
I0
sg8
I0
ssI403
(dp2117
g3
I0
sg4
I0
sg5
I0
sg6
I0
sg7
I0
sg8
I0
ssI1701
(dp2118
g3
I0
sg4
I0
sg5
I0
sg6
I0
sg7
I0
sg8
I0
ssI1702
(dp2119
g3
I0
sg4
I0
sg5
I0
sg6
I0
sg7
I0
sg8
I0
ssI1703
(dp2120
g3
I0
sg4
I0
sg5
I0
sg6
I0
sg7
I0
sg8
I0
ssI1201
(dp2121
g3
I0
sg4
I0
sg5
I0
sg6
I0
sg7
I0
sg8
I0
ssI1202
(dp2122
g3
I0
sg4
I0
sg5
I0
sg6
I0
sg7
I0
sg8
I0
ssI1203
(dp2123
g3
I0
sg4
I0
sg5
I0
sg6
I0
sg7
I0
sg8
I0
ssI701
(dp2124
g3
I0
sg4
I0
sg5
I0
sg6
I0
sg7
I0
sg8
I0
ssI702
(dp2125
g3
I0
sg4
I0
sg5
I0
sg6
I0
sg7
I0
sg8
I0
ssI703
(dp2126
g3
I0
sg4
I0
sg5
I0
sg6
I0
sg7
I0
sg8
I0
ssI201
(dp2127
g3
I0
sg4
I0
sg5
I0
sg6
I0
sg7
I0
sg8
I0
ssI202
(dp2128
g3
I0
sg4
I0
sg5
I0
sg6
I0
sg7
I0
sg8
I0
ssI203
(dp2129
g3
I0
sg4
I0
sg5
I0
sg6
I0
sg7
I0
sg8
I0
ssI2001
(dp2130
g3
I0
sg4
I0
sg5
I0
sg6
I0
sg7
I0
sg8
I0
ssI2002
(dp2131
g3
I0
sg4
I0
sg5
I0
sg6
I0
sg7
I0
sg8
I0
ssI2003
(dp2132
g3
I0
sg4
I0
sg5
I0
sg6
I0
sg7
I0
sg8
I0
ssI1501
(dp2133
g3
I0
sg4
I0
sg5
I0
sg6
I0
sg7
I0
sg8
I0
ssI1502
(dp2134
g3
I0
sg4
I0
sg5
I0
sg6
I0
sg7
I0
sg8
I0
ssI1503
(dp2135
g3
I0
sg4
I0
sg5
I0
sg6
I0
sg7
I0
sg8
I0
ssI1001
(dp2136
g3
I0
sg4
I0
sg5
I0
sg6
I0
sg7
I0
sg8
I0
ssI1002
(dp2137
g3
I0
sg4
I0
sg5
I0
sg6
I0
sg7
I0
sg8
I0
ssI1003
(dp2138
g3
I0
sg4
I0
sg5
I0
sg6
I0
sg7
I0
sg8
I0
ssI501
(dp2139
g3
I0
sg4
I0
sg5
I0
sg6
I0
sg7
I0
sg8
I0
ssI502
(dp2140
g3
I0
sg4
I0
sg5
I0
sg6
I0
sg7
I0
sg8
I0
ssI503
(dp2141
g3
I0
sg4
I0
sg5
I0
sg6
I0
sg7
I0
sg8
I0
sssI36
(dp2142
I1801
(dp2143
g3
I0
sg4
I0
sg5
I0
sg6
I0
sg7
I0
sg8
I0
ssI1802
(dp2144
g3
I0
sg4
I0
sg5
I0
sg6
I0
sg7
I0
sg8
I0
ssI1803
(dp2145
g3
I0
sg4
I0
sg5
I0
sg6
I0
sg7
I0
sg8
I0
ssI1301
(dp2146
g3
I0
sg4
I0
sg5
I0
sg6
I0
sg7
I0
sg8
I0
ssI1302
(dp2147
g3
I0
sg4
I0
sg5
I0
sg6
I0
sg7
I0
sg8
I0
ssI1303
(dp2148
g3
I0
sg4
I0
sg5
I0
sg6
I0
sg7
I0
sg8
I0
ssI801
(dp2149
g3
I0
sg4
I0
sg5
I0
sg6
I0
sg7
I0
sg8
I0
ssI802
(dp2150
g3
I0
sg4
I0
sg5
I0
sg6
I0
sg7
I0
sg8
I0
ssI803
(dp2151
g3
I0
sg4
I0
sg5
I0
sg6
I0
sg7
I0
sg8
I0
ssI301
(dp2152
g3
I0
sg4
I0
sg5
I0
sg6
I0
sg7
I0
sg8
I0
ssI302
(dp2153
g3
I0
sg4
I0
sg5
I0
sg6
I0
sg7
I0
sg8
I0
ssI303
(dp2154
g3
I0
sg4
I0
sg5
I0
sg6
I0
sg7
I0
sg8
I0
ssI1601
(dp2155
g3
I0
sg4
I0
sg5
I0
sg6
I0
sg7
I0
sg8
I0
ssI1602
(dp2156
g3
I0
sg4
I0
sg5
I0
sg6
I0
sg7
I0
sg8
I0
ssI1603
(dp2157
g3
I0
sg4
I0
sg5
I0
sg6
I0
sg7
I0
sg8
I0
ssI1101
(dp2158
g3
I0
sg4
I0
sg5
I0
sg6
I0
sg7
I0
sg8
I0
ssI1102
(dp2159
g3
I0
sg4
I0
sg5
I0
sg6
I0
sg7
I0
sg8
I0
ssI1103
(dp2160
g3
I0
sg4
I0
sg5
I0
sg6
I0
sg7
I0
sg8
I0
ssI601
(dp2161
g3
I0
sg4
I0
sg5
I0
sg6
I0
sg7
I0
sg8
I0
ssI602
(dp2162
g3
I0
sg4
I0
sg5
I0
sg6
I0
sg7
I0
sg8
I0
ssI603
(dp2163
g3
I0
sg4
I0
sg5
I0
sg6
I0
sg7
I0
sg8
I0
ssI101
(dp2164
g3
I0
sg4
I0
sg5
I0
sg6
I0
sg7
I0
sg8
I0
ssI102
(dp2165
g3
I0
sg4
I0
sg5
I0
sg6
I0
sg7
I0
sg8
I0
ssI103
(dp2166
g3
I0
sg4
I0
sg5
I0
sg6
I0
sg7
I0
sg8
I0
ssI1901
(dp2167
g3
I0
sg4
I0
sg5
I0
sg6
I0
sg7
I0
sg8
I0
ssI1902
(dp2168
g3
I0
sg4
I0
sg5
I0
sg6
I0
sg7
I0
sg8
I0
ssI1903
(dp2169
g3
I0
sg4
I0
sg5
I0
sg6
I0
sg7
I0
sg8
I0
ssI1401
(dp2170
g3
I0
sg4
I0
sg5
I0
sg6
I0
sg7
I0
sg8
I0
ssI1402
(dp2171
g3
I0
sg4
I0
sg5
I0
sg6
I0
sg7
I0
sg8
I0
ssI1403
(dp2172
g3
I0
sg4
I0
sg5
I0
sg6
I0
sg7
I0
sg8
I0
ssI901
(dp2173
g3
I0
sg4
I0
sg5
I0
sg6
I0
sg7
I0
sg8
I0
ssI902
(dp2174
g3
I0
sg4
I0
sg5
I0
sg6
I0
sg7
I0
sg8
I0
ssI903
(dp2175
g3
I0
sg4
I0
sg5
I0
sg6
I0
sg7
I0
sg8
I0
ssI401
(dp2176
g3
I0
sg4
I0
sg5
I0
sg6
I0
sg7
I0
sg8
I0
ssI402
(dp2177
g3
I0
sg4
I0
sg5
I0
sg6
I0
sg7
I0
sg8
I0
ssI403
(dp2178
g3
I0
sg4
I0
sg5
I0
sg6
I0
sg7
I0
sg8
I0
ssI1701
(dp2179
g3
I0
sg4
I0
sg5
I0
sg6
I0
sg7
I0
sg8
I0
ssI1702
(dp2180
g3
I0
sg4
I0
sg5
I0
sg6
I0
sg7
I0
sg8
I0
ssI1703
(dp2181
g3
I0
sg4
I0
sg5
I0
sg6
I0
sg7
I0
sg8
I0
ssI1201
(dp2182
g3
I0
sg4
I0
sg5
I0
sg6
I0
sg7
I0
sg8
I0
ssI1202
(dp2183
g3
I0
sg4
I0
sg5
I0
sg6
I0
sg7
I0
sg8
I0
ssI1203
(dp2184
g3
I0
sg4
I0
sg5
I0
sg6
I0
sg7
I0
sg8
I0
ssI701
(dp2185
g3
I0
sg4
I0
sg5
I0
sg6
I0
sg7
I0
sg8
I0
ssI702
(dp2186
g3
I0
sg4
I0
sg5
I0
sg6
I0
sg7
I0
sg8
I0
ssI703
(dp2187
g3
I0
sg4
I0
sg5
I0
sg6
I0
sg7
I0
sg8
I0
ssI201
(dp2188
g3
I0
sg4
I0
sg5
I0
sg6
I0
sg7
I0
sg8
I0
ssI202
(dp2189
g3
I0
sg4
I0
sg5
I0
sg6
I0
sg7
I0
sg8
I0
ssI203
(dp2190
g3
I0
sg4
I0
sg5
I0
sg6
I0
sg7
I0
sg8
I0
ssI2001
(dp2191
g3
I0
sg4
I0
sg5
I0
sg6
I0
sg7
I0
sg8
I0
ssI2002
(dp2192
g3
I0
sg4
I0
sg5
I0
sg6
I0
sg7
I0
sg8
I0
ssI2003
(dp2193
g3
I0
sg4
I0
sg5
I0
sg6
I0
sg7
I0
sg8
I0
ssI1501
(dp2194
g3
I0
sg4
I0
sg5
I0
sg6
I0
sg7
I0
sg8
I0
ssI1502
(dp2195
g3
I0
sg4
I0
sg5
I0
sg6
I0
sg7
I0
sg8
I0
ssI1503
(dp2196
g3
I0
sg4
I0
sg5
I0
sg6
I0
sg7
I0
sg8
I0
ssI1001
(dp2197
g3
I0
sg4
I0
sg5
I0
sg6
I0
sg7
I0
sg8
I0
ssI1002
(dp2198
g3
I0
sg4
I0
sg5
I0
sg6
I0
sg7
I0
sg8
I0
ssI1003
(dp2199
g3
I0
sg4
I0
sg5
I0
sg6
I0
sg7
I0
sg8
I0
ssI501
(dp2200
g3
I0
sg4
I0
sg5
I0
sg6
I0
sg7
I0
sg8
I0
ssI502
(dp2201
g3
I0
sg4
I0
sg5
I0
sg6
I0
sg7
I0
sg8
I0
ssI503
(dp2202
g3
I0
sg4
I0
sg5
I0
sg6
I0
sg7
I0
sg8
I0
sssI37
(dp2203
I1801
(dp2204
g3
I0
sg4
I0
sg5
I0
sg6
I0
sg7
I0
sg8
I0
ssI1802
(dp2205
g3
I0
sg4
I0
sg5
I0
sg6
I0
sg7
I0
sg8
I0
ssI1803
(dp2206
g3
I0
sg4
I0
sg5
I0
sg6
I0
sg7
I0
sg8
I0
ssI1301
(dp2207
g3
I0
sg4
I0
sg5
I0
sg6
I0
sg7
I0
sg8
I0
ssI1302
(dp2208
g3
I0
sg4
I0
sg5
I0
sg6
I0
sg7
I0
sg8
I0
ssI1303
(dp2209
g3
I0
sg4
I0
sg5
I0
sg6
I0
sg7
I0
sg8
I0
ssI801
(dp2210
g3
I0
sg4
I0
sg5
I0
sg6
I0
sg7
I0
sg8
I0
ssI802
(dp2211
g3
I0
sg4
I0
sg5
I0
sg6
I0
sg7
I0
sg8
I0
ssI803
(dp2212
g3
I0
sg4
I0
sg5
I0
sg6
I0
sg7
I0
sg8
I0
ssI301
(dp2213
g3
I0
sg4
I0
sg5
I0
sg6
I0
sg7
I0
sg8
I0
ssI302
(dp2214
g3
I0
sg4
I0
sg5
I0
sg6
I0
sg7
I0
sg8
I0
ssI303
(dp2215
g3
I0
sg4
I0
sg5
I0
sg6
I0
sg7
I0
sg8
I0
ssI1601
(dp2216
g3
I0
sg4
I0
sg5
I0
sg6
I0
sg7
I0
sg8
I0
ssI1602
(dp2217
g3
I0
sg4
I0
sg5
I0
sg6
I0
sg7
I0
sg8
I0
ssI1603
(dp2218
g3
I0
sg4
I0
sg5
I0
sg6
I0
sg7
I0
sg8
I0
ssI1101
(dp2219
g3
I0
sg4
I0
sg5
I0
sg6
I0
sg7
I0
sg8
I0
ssI1102
(dp2220
g3
I0
sg4
I0
sg5
I0
sg6
I0
sg7
I0
sg8
I0
ssI1103
(dp2221
g3
I0
sg4
I0
sg5
I0
sg6
I0
sg7
I0
sg8
I0
ssI601
(dp2222
g3
I0
sg4
I0
sg5
I0
sg6
I0
sg7
I0
sg8
I0
ssI602
(dp2223
g3
I0
sg4
I0
sg5
I0
sg6
I0
sg7
I0
sg8
I0
ssI603
(dp2224
g3
I0
sg4
I0
sg5
I0
sg6
I0
sg7
I0
sg8
I0
ssI101
(dp2225
g3
I0
sg4
I0
sg5
I0
sg6
I0
sg7
I0
sg8
I0
ssI102
(dp2226
g3
I0
sg4
I0
sg5
I0
sg6
I0
sg7
I0
sg8
I0
ssI103
(dp2227
g3
I0
sg4
I0
sg5
I0
sg6
I0
sg7
I0
sg8
I0
ssI1901
(dp2228
g3
I0
sg4
I0
sg5
I0
sg6
I0
sg7
I0
sg8
I0
ssI1902
(dp2229
g3
I0
sg4
I0
sg5
I0
sg6
I0
sg7
I0
sg8
I0
ssI1903
(dp2230
g3
I0
sg4
I0
sg5
I0
sg6
I0
sg7
I0
sg8
I0
ssI1401
(dp2231
g3
I0
sg4
I0
sg5
I0
sg6
I0
sg7
I0
sg8
I0
ssI1402
(dp2232
g3
I0
sg4
I0
sg5
I0
sg6
I0
sg7
I0
sg8
I0
ssI1403
(dp2233
g3
I0
sg4
I0
sg5
I0
sg6
I0
sg7
I0
sg8
I0
ssI901
(dp2234
g3
I0
sg4
I0
sg5
I0
sg6
I0
sg7
I0
sg8
I0
ssI902
(dp2235
g3
I0
sg4
I0
sg5
I0
sg6
I0
sg7
I0
sg8
I0
ssI903
(dp2236
g3
I0
sg4
I0
sg5
I0
sg6
I0
sg7
I0
sg8
I0
ssI401
(dp2237
g3
I0
sg4
I0
sg5
I0
sg6
I0
sg7
I0
sg8
I0
ssI402
(dp2238
g3
I0
sg4
I0
sg5
I0
sg6
I0
sg7
I0
sg8
I0
ssI403
(dp2239
g3
I0
sg4
I0
sg5
I0
sg6
I0
sg7
I0
sg8
I0
ssI1701
(dp2240
g3
I0
sg4
I0
sg5
I0
sg6
I0
sg7
I0
sg8
I0
ssI1702
(dp2241
g3
I0
sg4
I0
sg5
I0
sg6
I0
sg7
I0
sg8
I0
ssI1703
(dp2242
g3
I0
sg4
I0
sg5
I0
sg6
I0
sg7
I0
sg8
I0
ssI1201
(dp2243
g3
I0
sg4
I0
sg5
I0
sg6
I0
sg7
I0
sg8
I0
ssI1202
(dp2244
g3
I0
sg4
I0
sg5
I0
sg6
I0
sg7
I0
sg8
I0
ssI1203
(dp2245
g3
I0
sg4
I0
sg5
I0
sg6
I0
sg7
I0
sg8
I0
ssI701
(dp2246
g3
I0
sg4
I0
sg5
I0
sg6
I0
sg7
I0
sg8
I0
ssI702
(dp2247
g3
I0
sg4
I0
sg5
I0
sg6
I0
sg7
I0
sg8
I0
ssI703
(dp2248
g3
I0
sg4
I0
sg5
I0
sg6
I0
sg7
I0
sg8
I0
ssI201
(dp2249
g3
I0
sg4
I0
sg5
I0
sg6
I0
sg7
I0
sg8
I0
ssI202
(dp2250
g3
I0
sg4
I0
sg5
I0
sg6
I0
sg7
I0
sg8
I0
ssI203
(dp2251
g3
I0
sg4
I0
sg5
I0
sg6
I0
sg7
I0
sg8
I0
ssI2001
(dp2252
g3
I0
sg4
I0
sg5
I0
sg6
I0
sg7
I0
sg8
I0
ssI2002
(dp2253
g3
I0
sg4
I0
sg5
I0
sg6
I0
sg7
I0
sg8
I0
ssI2003
(dp2254
g3
I0
sg4
I0
sg5
I0
sg6
I0
sg7
I0
sg8
I0
ssI1501
(dp2255
g3
I0
sg4
I0
sg5
I0
sg6
I0
sg7
I0
sg8
I0
ssI1502
(dp2256
g3
I0
sg4
I0
sg5
I0
sg6
I0
sg7
I0
sg8
I0
ssI1503
(dp2257
g3
I0
sg4
I0
sg5
I0
sg6
I0
sg7
I0
sg8
I0
ssI1001
(dp2258
g3
I0
sg4
I0
sg5
I0
sg6
I0
sg7
I0
sg8
I0
ssI1002
(dp2259
g3
I0
sg4
I0
sg5
I0
sg6
I0
sg7
I0
sg8
I0
ssI1003
(dp2260
g3
I0
sg4
I0
sg5
I0
sg6
I0
sg7
I0
sg8
I0
ssI501
(dp2261
g3
I0
sg4
I0
sg5
I0
sg6
I0
sg7
I0
sg8
I0
ssI502
(dp2262
g3
I0
sg4
I0
sg5
I0
sg6
I0
sg7
I0
sg8
I0
ssI503
(dp2263
g3
I0
sg4
I0
sg5
I0
sg6
I0
sg7
I0
sg8
I0
sssI38
(dp2264
I1801
(dp2265
g3
I0
sg4
I0
sg5
I0
sg6
I0
sg7
I0
sg8
I0
ssI1802
(dp2266
g3
I0
sg4
I0
sg5
I0
sg6
I0
sg7
I0
sg8
I0
ssI1803
(dp2267
g3
I0
sg4
I0
sg5
I0
sg6
I0
sg7
I0
sg8
I0
ssI1301
(dp2268
g3
I0
sg4
I0
sg5
I0
sg6
I0
sg7
I0
sg8
I0
ssI1302
(dp2269
g3
I0
sg4
I0
sg5
I0
sg6
I0
sg7
I0
sg8
I0
ssI1303
(dp2270
g3
I0
sg4
I0
sg5
I0
sg6
I0
sg7
I0
sg8
I0
ssI801
(dp2271
g3
I0
sg4
I0
sg5
I0
sg6
I0
sg7
I0
sg8
I0
ssI802
(dp2272
g3
I0
sg4
I0
sg5
I0
sg6
I0
sg7
I0
sg8
I0
ssI803
(dp2273
g3
I0
sg4
I0
sg5
I0
sg6
I0
sg7
I0
sg8
I0
ssI301
(dp2274
g3
I0
sg4
I0
sg5
I0
sg6
I0
sg7
I0
sg8
I0
ssI302
(dp2275
g3
I0
sg4
I0
sg5
I0
sg6
I0
sg7
I0
sg8
I0
ssI303
(dp2276
g3
I0
sg4
I0
sg5
I0
sg6
I0
sg7
I0
sg8
I0
ssI1601
(dp2277
g3
I0
sg4
I0
sg5
I0
sg6
I0
sg7
I0
sg8
I0
ssI1602
(dp2278
g3
I0
sg4
I0
sg5
I0
sg6
I0
sg7
I0
sg8
I0
ssI1603
(dp2279
g3
I0
sg4
I0
sg5
I0
sg6
I0
sg7
I0
sg8
I0
ssI1101
(dp2280
g3
I0
sg4
I0
sg5
I0
sg6
I0
sg7
I0
sg8
I0
ssI1102
(dp2281
g3
I0
sg4
I0
sg5
I0
sg6
I0
sg7
I0
sg8
I0
ssI1103
(dp2282
g3
I0
sg4
I0
sg5
I0
sg6
I0
sg7
I0
sg8
I0
ssI601
(dp2283
g3
I0
sg4
I0
sg5
I0
sg6
I0
sg7
I0
sg8
I0
ssI602
(dp2284
g3
I0
sg4
I0
sg5
I0
sg6
I0
sg7
I0
sg8
I0
ssI603
(dp2285
g3
I0
sg4
I0
sg5
I0
sg6
I0
sg7
I0
sg8
I0
ssI101
(dp2286
g3
I0
sg4
I0
sg5
I0
sg6
I0
sg7
I0
sg8
I0
ssI102
(dp2287
g3
I0
sg4
I0
sg5
I0
sg6
I0
sg7
I0
sg8
I0
ssI103
(dp2288
g3
I0
sg4
I0
sg5
I0
sg6
I0
sg7
I0
sg8
I0
ssI1901
(dp2289
g3
I0
sg4
I0
sg5
I0
sg6
I0
sg7
I0
sg8
I0
ssI1902
(dp2290
g3
I0
sg4
I0
sg5
I0
sg6
I0
sg7
I0
sg8
I0
ssI1903
(dp2291
g3
I0
sg4
I0
sg5
I0
sg6
I0
sg7
I0
sg8
I0
ssI1401
(dp2292
g3
I0
sg4
I0
sg5
I0
sg6
I0
sg7
I0
sg8
I0
ssI1402
(dp2293
g3
I0
sg4
I0
sg5
I0
sg6
I0
sg7
I0
sg8
I0
ssI1403
(dp2294
g3
I0
sg4
I0
sg5
I0
sg6
I0
sg7
I0
sg8
I0
ssI901
(dp2295
g3
I0
sg4
I0
sg5
I0
sg6
I0
sg7
I0
sg8
I0
ssI902
(dp2296
g3
I0
sg4
I0
sg5
I0
sg6
I0
sg7
I0
sg8
I0
ssI903
(dp2297
g3
I0
sg4
I0
sg5
I0
sg6
I0
sg7
I0
sg8
I0
ssI401
(dp2298
g3
I0
sg4
I0
sg5
I0
sg6
I0
sg7
I0
sg8
I0
ssI402
(dp2299
g3
I0
sg4
I0
sg5
I0
sg6
I0
sg7
I0
sg8
I0
ssI403
(dp2300
g3
I0
sg4
I0
sg5
I0
sg6
I0
sg7
I0
sg8
I0
ssI1701
(dp2301
g3
I0
sg4
I0
sg5
I0
sg6
I0
sg7
I0
sg8
I0
ssI1702
(dp2302
g3
I0
sg4
I0
sg5
I0
sg6
I0
sg7
I0
sg8
I0
ssI1703
(dp2303
g3
I0
sg4
I0
sg5
I0
sg6
I0
sg7
I0
sg8
I0
ssI1201
(dp2304
g3
I0
sg4
I0
sg5
I0
sg6
I0
sg7
I0
sg8
I0
ssI1202
(dp2305
g3
I0
sg4
I0
sg5
I0
sg6
I0
sg7
I0
sg8
I0
ssI1203
(dp2306
g3
I0
sg4
I0
sg5
I0
sg6
I0
sg7
I0
sg8
I0
ssI701
(dp2307
g3
I0
sg4
I0
sg5
I0
sg6
I0
sg7
I0
sg8
I0
ssI702
(dp2308
g3
I0
sg4
I0
sg5
I0
sg6
I0
sg7
I0
sg8
I0
ssI703
(dp2309
g3
I0
sg4
I0
sg5
I0
sg6
I0
sg7
I0
sg8
I0
ssI201
(dp2310
g3
I0
sg4
I0
sg5
I0
sg6
I0
sg7
I0
sg8
I0
ssI202
(dp2311
g3
I0
sg4
I0
sg5
I0
sg6
I0
sg7
I0
sg8
I0
ssI203
(dp2312
g3
I0
sg4
I0
sg5
I0
sg6
I0
sg7
I0
sg8
I0
ssI2001
(dp2313
g3
I0
sg4
I0
sg5
I0
sg6
I0
sg7
I0
sg8
I0
ssI2002
(dp2314
g3
I0
sg4
I0
sg5
I0
sg6
I0
sg7
I0
sg8
I0
ssI2003
(dp2315
g3
I0
sg4
I0
sg5
I0
sg6
I0
sg7
I0
sg8
I0
ssI1501
(dp2316
g3
I0
sg4
I0
sg5
I0
sg6
I0
sg7
I0
sg8
I0
ssI1502
(dp2317
g3
I0
sg4
I0
sg5
I0
sg6
I0
sg7
I0
sg8
I0
ssI1503
(dp2318
g3
I0
sg4
I0
sg5
I0
sg6
I0
sg7
I0
sg8
I0
ssI1001
(dp2319
g3
I0
sg4
I0
sg5
I0
sg6
I0
sg7
I0
sg8
I0
ssI1002
(dp2320
g3
I0
sg4
I0
sg5
I0
sg6
I0
sg7
I0
sg8
I0
ssI1003
(dp2321
g3
I0
sg4
I0
sg5
I0
sg6
I0
sg7
I0
sg8
I0
ssI501
(dp2322
g3
I0
sg4
I0
sg5
I0
sg6
I0
sg7
I0
sg8
I0
ssI502
(dp2323
g3
I0
sg4
I0
sg5
I0
sg6
I0
sg7
I0
sg8
I0
ssI503
(dp2324
g3
I0
sg4
I0
sg5
I0
sg6
I0
sg7
I0
sg8
I0
sss.